TN:
SF:/home/iago/Documents/school/ufmg/2_Semestre/PDS_II/codes/vpls/prova2/include/circulo.h
FNF:0
FNH:0
DA:7,5
LF:1
LH:1
end_of_record
TN:
SF:/home/iago/Documents/school/ufmg/2_Semestre/PDS_II/codes/vpls/prova2/include/cubo.h
FNF:0
FNH:0
DA:6,9
LF:1
LH:1
end_of_record
TN:
SF:/home/iago/Documents/school/ufmg/2_Semestre/PDS_II/codes/vpls/prova2/include/esfera.h
FNF:0
FNH:0
DA:7,5
LF:1
LH:1
end_of_record
TN:
SF:/home/iago/Documents/school/ufmg/2_Semestre/PDS_II/codes/vpls/prova2/include/forma.h
FNF:0
FNH:0
DA:8,21
LF:1
LH:1
end_of_record
TN:
SF:/home/iago/Documents/school/ufmg/2_Semestre/PDS_II/codes/vpls/prova2/include/forma2d.h
FNF:0
FNH:0
DA:6,21
LF:1
LH:1
end_of_record
TN:
SF:/home/iago/Documents/school/ufmg/2_Semestre/PDS_II/codes/vpls/prova2/include/forma3d.h
FNF:0
FNH:0
DA:6,15
LF:1
LH:1
end_of_record
TN:
SF:/home/iago/Documents/school/ufmg/2_Semestre/PDS_II/codes/vpls/prova2/include/quadrado.h
FNF:0
FNH:0
DA:6,10
LF:1
LH:1
end_of_record
TN:
SF:/home/iago/Documents/school/ufmg/2_Semestre/PDS_II/codes/vpls/prova2/include/triangulo.h
FNF:0
FNH:0
LF:0
LH:0
end_of_record
TN:
SF:/home/iago/Documents/school/ufmg/2_Semestre/PDS_II/codes/vpls/prova2/src/circulo.cpp
FN:11,13,_ZN7Circulo8get_areaEv
FN:14,16,_ZN7Circulo13get_perimetroEv
FN:18,20,_ZN7Circulo8get_nomeB5cxx11Ev
FN:3,9,_ZN7CirculoC2ENSt7__cxx1112basic_stringIcSt11char_traitsIcESaIcEEEd
FNDA:3,_ZN7Circulo8get_areaEv
FNDA:2,_ZN7Circulo13get_perimetroEv
FNDA:2,_ZN7Circulo8get_nomeB5cxx11Ev
FNDA:7,_ZN7CirculoC2ENSt7__cxx1112basic_stringIcSt11char_traitsIcESaIcEEEd
FNF:4
FNH:4
DA:3,7
DA:6,7
DA:7,7
DA:8,7
DA:9,7
DA:11,3
DA:12,3
DA:14,2
DA:15,2
DA:18,2
DA:19,2
LF:11
LH:11
end_of_record
TN:
SF:/home/iago/Documents/school/ufmg/2_Semestre/PDS_II/codes/vpls/prova2/src/cubo.cpp
FN:11,13,_ZN4Cubo8get_nomeB5cxx11Ev
FN:15,17,_ZN4Cubo10get_volumeEv
FN:3,9,_ZN4CuboC2ENSt7__cxx1112basic_stringIcSt11char_traitsIcESaIcEEEd
FNDA:2,_ZN4Cubo8get_nomeB5cxx11Ev
FNDA:3,_ZN4Cubo10get_volumeEv
FNDA:7,_ZN4CuboC2ENSt7__cxx1112basic_stringIcSt11char_traitsIcESaIcEEEd
FNF:3
FNH:3
DA:3,7
DA:6,7
DA:7,7
DA:8,7
DA:9,7
DA:11,2
DA:12,2
DA:15,3
DA:16,3
LF:9
LH:9
end_of_record
TN:
SF:/home/iago/Documents/school/ufmg/2_Semestre/PDS_II/codes/vpls/prova2/src/esfera.cpp
FN:11,13,_ZN6Esfera8get_nomeB5cxx11Ev
FN:15,17,_ZN6Esfera10get_volumeEv
FN:3,9,_ZN6EsferaC2ENSt7__cxx1112basic_stringIcSt11char_traitsIcESaIcEEEd
FNDA:3,_ZN6Esfera8get_nomeB5cxx11Ev
FNDA:3,_ZN6Esfera10get_volumeEv
FNDA:7,_ZN6EsferaC2ENSt7__cxx1112basic_stringIcSt11char_traitsIcESaIcEEEd
FNF:3
FNH:3
DA:3,7
DA:6,7
DA:7,7
DA:8,7
DA:9,7
DA:11,3
DA:12,3
DA:15,3
DA:16,3
LF:9
LH:9
end_of_record
TN:
SF:/home/iago/Documents/school/ufmg/2_Semestre/PDS_II/codes/vpls/prova2/src/forma.cpp
FN:3,5,_ZN5FormaC2ENSt7__cxx1112basic_stringIcSt11char_traitsIcESaIcEEE
FN:7,9,_ZN5Forma7get_corB5cxx11Ev
FNDA:35,_ZN5FormaC2ENSt7__cxx1112basic_stringIcSt11char_traitsIcESaIcEEE
FNDA:7,_ZN5Forma7get_corB5cxx11Ev
FNF:2
FNH:2
DA:3,35
DA:5,35
DA:7,7
DA:8,7
LF:4
LH:4
end_of_record
TN:
SF:/home/iago/Documents/school/ufmg/2_Semestre/PDS_II/codes/vpls/prova2/src/forma2d.cpp
FN:3,5,_ZN7Forma2DC2ENSt7__cxx1112basic_stringIcSt11char_traitsIcESaIcEEE
FNDA:21,_ZN7Forma2DC2ENSt7__cxx1112basic_stringIcSt11char_traitsIcESaIcEEE
FNF:1
FNH:1
DA:3,21
DA:5,42
LF:2
LH:2
end_of_record
TN:
SF:/home/iago/Documents/school/ufmg/2_Semestre/PDS_II/codes/vpls/prova2/src/forma3d.cpp
FN:3,5,_ZN7Forma3DC2ENSt7__cxx1112basic_stringIcSt11char_traitsIcESaIcEEE
FNDA:14,_ZN7Forma3DC2ENSt7__cxx1112basic_stringIcSt11char_traitsIcESaIcEEE
FNF:1
FNH:1
DA:3,14
DA:5,28
LF:2
LH:2
end_of_record
TN:
SF:/home/iago/Documents/school/ufmg/2_Semestre/PDS_II/codes/vpls/prova2/src/quadrado.cpp
FN:11,13,_ZN8Quadrado8get_areaEv
FN:14,16,_ZN8Quadrado13get_perimetroEv
FN:18,20,_ZN8Quadrado8get_nomeB5cxx11Ev
FN:3,9,_ZN8QuadradoC2ENSt7__cxx1112basic_stringIcSt11char_traitsIcESaIcEEEd
FNDA:3,_ZN8Quadrado8get_areaEv
FNDA:2,_ZN8Quadrado13get_perimetroEv
FNDA:2,_ZN8Quadrado8get_nomeB5cxx11Ev
FNDA:7,_ZN8QuadradoC2ENSt7__cxx1112basic_stringIcSt11char_traitsIcESaIcEEEd
FNF:4
FNH:4
DA:3,7
DA:6,7
DA:7,7
DA:8,7
DA:9,7
DA:11,3
DA:12,3
DA:14,2
DA:15,2
DA:18,2
DA:19,2
LF:11
LH:11
end_of_record
TN:
SF:/home/iago/Documents/school/ufmg/2_Semestre/PDS_II/codes/vpls/prova2/src/triangulo.cpp
FN:18,21,_ZN9Triangulo8get_areaEv
FN:22,27,_ZN9Triangulo13get_perimetroEv
FN:29,31,_ZN9Triangulo8get_nomeB5cxx11Ev
FN:5,16,_ZN9TrianguloC2ENSt7__cxx1112basic_stringIcSt11char_traitsIcESaIcEEEddd
FNDA:3,_ZN9Triangulo8get_areaEv
FNDA:5,_ZN9Triangulo13get_perimetroEv
FNDA:2,_ZN9Triangulo8get_nomeB5cxx11Ev
FNDA:7,_ZN9TrianguloC2ENSt7__cxx1112basic_stringIcSt11char_traitsIcESaIcEEEddd
FNF:4
FNH:4
DA:5,7
DA:10,14
DA:11,7
DA:13,5
DA:14,5
DA:15,5
DA:16,9
DA:18,3
DA:19,3
DA:20,3
DA:22,5
DA:23,5
DA:24,20
DA:26,5
DA:29,2
DA:30,2
LF:16
LH:16
end_of_record
TN:
SF:/home/iago/Documents/school/ufmg/2_Semestre/PDS_II/codes/vpls/prova2/tests/testes.cpp
FN:100,106,_ZL20DOCTEST_ANON_FUNC_10v
FN:108,116,_ZL20DOCTEST_ANON_FUNC_12v
FN:118,126,_ZL20DOCTEST_ANON_FUNC_14v
FN:128,136,_ZL20DOCTEST_ANON_FUNC_16v
FN:139,146,_ZL20DOCTEST_ANON_FUNC_18v
FN:148,155,_ZL20DOCTEST_ANON_FUNC_20v
FN:15,24,_ZL19DOCTEST_ANON_FUNC_2v
FN:26,45,_ZL19DOCTEST_ANON_FUNC_4v
FN:47,77,_ZL19DOCTEST_ANON_FUNC_6v
FN:79,98,_ZL19DOCTEST_ANON_FUNC_8v
FNDA:1,_ZL20DOCTEST_ANON_FUNC_10v
FNDA:1,_ZL20DOCTEST_ANON_FUNC_12v
FNDA:1,_ZL20DOCTEST_ANON_FUNC_14v
FNDA:1,_ZL20DOCTEST_ANON_FUNC_16v
FNDA:1,_ZL20DOCTEST_ANON_FUNC_18v
FNDA:1,_ZL20DOCTEST_ANON_FUNC_20v
FNDA:1,_ZL19DOCTEST_ANON_FUNC_2v
FNDA:1,_ZL19DOCTEST_ANON_FUNC_4v
FNDA:1,_ZL19DOCTEST_ANON_FUNC_6v
FNDA:1,_ZL19DOCTEST_ANON_FUNC_8v
FNF:10
FNH:10
DA:15,1
DA:18,1
DA:19,2
DA:20,2
DA:21,2
DA:22,2
DA:24,1
DA:26,1
DA:27,1
DA:28,2
DA:29,2
DA:31,1
DA:32,2
DA:33,2
DA:35,1
DA:36,2
DA:38,1
DA:39,2
DA:41,1
DA:42,2
DA:43,2
DA:45,1
DA:47,1
DA:48,1
DA:49,1
DA:50,1
DA:51,1
DA:52,1
DA:54,1
DA:55,1
DA:56,1
DA:57,1
DA:58,1
DA:60,1
DA:61,1
DA:62,1
DA:63,1
DA:64,1
DA:67,2
DA:68,2
DA:69,2
DA:70,2
DA:71,2
DA:74,2
DA:75,2
DA:77,1
DA:79,1
DA:80,1
DA:81,1
DA:82,1
DA:83,1
DA:84,1
DA:86,1
DA:87,1
DA:88,1
DA:89,1
DA:90,1
DA:93,2
DA:94,2
DA:95,2
DA:96,2
DA:97,2
DA:98,1
DA:100,1
DA:101,2
DA:102,2
DA:103,2
DA:104,2
DA:105,2
DA:106,1
DA:108,1
DA:109,1
DA:111,2
DA:112,3
DA:113,2
DA:114,3
DA:115,2
DA:116,1
DA:118,1
DA:119,1
DA:121,2
DA:122,3
DA:123,2
DA:124,3
DA:125,2
DA:126,1
DA:128,1
DA:129,1
DA:131,2
DA:132,3
DA:133,3
DA:134,2
DA:135,2
DA:136,1
DA:139,1
DA:140,1
DA:142,2
DA:143,3
DA:144,3
DA:145,4
DA:146,1
DA:148,1
DA:149,1
DA:151,2
DA:152,3
DA:153,3
DA:154,2
DA:155,1
LF:108
LH:108
end_of_record
TN:
SF:/home/iago/Documents/school/ufmg/2_Semestre/PDS_II/codes/vpls/prova2/third_party/doctest.h
FN:1064,1068,_ZN7doctest6detail8toStreamIA10_cEENS_6StringERKT_
FN:1064,1068,_ZN7doctest6detail8toStreamIA5_cEENS_6StringERKT_
FN:1064,1068,_ZN7doctest6detail8toStreamIA7_cEENS_6StringERKT_
FN:1064,1068,_ZN7doctest6detail8toStreamIA8_cEENS_6StringERKT_
FN:1064,1068,_ZN7doctest6detail8toStreamIA9_cEENS_6StringERKT_
FN:1064,1068,_ZN7doctest6detail8toStreamINSt7__cxx1112basic_stringIcSt11char_traitsIcESaIcEEEEENS_6StringERKT_
FN:1180,1182,_ZN7doctest6detail8filldataIA10_KcE4fillEPSoRS3_
FN:1180,1182,_ZN7doctest6detail8filldataIA5_KcE4fillEPSoRS3_
FN:1180,1182,_ZN7doctest6detail8filldataIA7_KcE4fillEPSoRS3_
FN:1180,1182,_ZN7doctest6detail8filldataIA8_KcE4fillEPSoRS3_
FN:1180,1182,_ZN7doctest6detail8filldataIA9_KcE4fillEPSoRS3_
FN:1294,1294,_ZN7doctest5IsNaNIdEC2Edb
FN:1294,1294,_ZN7doctest5IsNaNIeEC2Eeb
FN:1294,1294,_ZN7doctest5IsNaNIfEC2Efb
FN:1295,1295,_ZNK7doctest5IsNaNIdEntEv
FN:1295,1295,_ZNK7doctest5IsNaNIeEntEv
FN:1295,1295,_ZNK7doctest5IsNaNIfEntEv
FN:1354,1357,_ZN7doctest6detail19stringifyBinaryExprINSt7__cxx1112basic_stringIcSt11char_traitsIcESaIcEEEA10_cEENS_6StringERKT_PKcRKT0_
FN:1354,1357,_ZN7doctest6detail19stringifyBinaryExprINSt7__cxx1112basic_stringIcSt11char_traitsIcESaIcEEEA5_cEENS_6StringERKT_PKcRKT0_
FN:1354,1357,_ZN7doctest6detail19stringifyBinaryExprINSt7__cxx1112basic_stringIcSt11char_traitsIcESaIcEEEA7_cEENS_6StringERKT_PKcRKT0_
FN:1354,1357,_ZN7doctest6detail19stringifyBinaryExprINSt7__cxx1112basic_stringIcSt11char_traitsIcESaIcEEEA8_cEENS_6StringERKT_PKcRKT0_
FN:1354,1357,_ZN7doctest6detail19stringifyBinaryExprINSt7__cxx1112basic_stringIcSt11char_traitsIcESaIcEEEA9_cEENS_6StringERKT_PKcRKT0_
FN:1354,1357,_ZN7doctest6detail19stringifyBinaryExprIddEENS_6StringERKT_PKcRKT0_
FN:1354,1357,_ZN7doctest6detail19stringifyBinaryExprIdiEENS_6StringERKT_PKcRKT0_
FN:1354,1357,_ZN7doctest6detail19stringifyBinaryExprIiiEENS_6StringERKT_PKcRKT0_
FN:1527,1527,_ZN7doctest6detail14Expression_lhsINSt7__cxx1112basic_stringIcSt11char_traitsIcESaIcEEEEeqIRA10_KcEEDTcmcvveqclL_ZNS0_7declvalIS7_EEOT_vEEcl7declvalISE_EEcvNS0_6ResultEilEESF_
FN:1527,1527,_ZN7doctest6detail14Expression_lhsINSt7__cxx1112basic_stringIcSt11char_traitsIcESaIcEEEEeqIRA5_KcEEDTcmcvveqclL_ZNS0_7declvalIS7_EEOT_vEEcl7declvalISE_EEcvNS0_6ResultEilEESF_
FN:1527,1527,_ZN7doctest6detail14Expression_lhsINSt7__cxx1112basic_stringIcSt11char_traitsIcESaIcEEEEeqIRA7_KcEEDTcmcvveqclL_ZNS0_7declvalIS7_EEOT_vEEcl7declvalISE_EEcvNS0_6ResultEilEESF_
FN:1527,1527,_ZN7doctest6detail14Expression_lhsINSt7__cxx1112basic_stringIcSt11char_traitsIcESaIcEEEEeqIRA8_KcEEDTcmcvveqclL_ZNS0_7declvalIS7_EEOT_vEEcl7declvalISE_EEcvNS0_6ResultEilEESF_
FN:1527,1527,_ZN7doctest6detail14Expression_lhsINSt7__cxx1112basic_stringIcSt11char_traitsIcESaIcEEEEeqIRA9_KcEEDTcmcvveqclL_ZNS0_7declvalIS7_EEOT_vEEcl7declvalISE_EEcvNS0_6ResultEilEESF_
FN:1527,1527,_ZN7doctest6detail14Expression_lhsIdEeqIiEEDTcmcvveqclL_ZNS0_7declvalIdEEOT_vEEcl7declvalIS5_EEcvNS0_6ResultEilEES6_
FN:1527,1527,_ZN7doctest6detail14Expression_lhsIiEeqIiEEDTcmcvveqclL_ZNS0_7declvalIiEEOT_vEEcl7declvalIS5_EEcvNS0_6ResultEilEES6_
FN:1530,1530,_ZN7doctest6detail14Expression_lhsIdEltIdEEDTcmcvvltclL_ZNS0_7declvalIdEEOT_vEEcl7declvalIS5_EEcvNS0_6ResultEilEES6_
FN:1644,1644,_ZN7doctest6detail8TestCaseD2Ev
FN:2104,2106,_ZN7doctest6detail15reporterCreatorINS_12_GLOBAL__N_111XmlReporterEEEPNS_9IReporterERKNS_14ContextOptionsE
FN:2104,2106,_ZN7doctest6detail15reporterCreatorINS_12_GLOBAL__N_113JUnitReporterEEEPNS_9IReporterERKNS_14ContextOptionsE
FN:2104,2106,_ZN7doctest6detail15reporterCreatorINS_12_GLOBAL__N_115ConsoleReporterEEEPNS_9IReporterERKNS_14ContextOptionsE
FN:3284,3298,_ZN7doctest12_GLOBAL__N_115throw_exceptionISt11logic_errorEEvRKT_
FN:3307,3313,_ZN7doctest12_GLOBAL__N_17stricmpEPKcS2_
FN:3346,3355,_ZN7doctest6detail10._anon_1513popEv
FN:3358,3360,_ZN7doctest6detail8tlssPushEv
FN:3362,3364,_ZN7doctest6detail7tlssPopEv
FN:3394,3398,_ZN7doctest6detail15getCurrentTicksEv
FN:3410,3410,_ZNK7doctest6detail5Timer17getElapsedSecondsEv
FN:3454,3454,_ZN7doctest6detail15MultiLaneAtomicIiEppEi
FN:3500,3506,_ZN7doctest6detail15MultiLaneAtomicIiE8myAtomicEv
FN:3545,3585,_ZN7doctest6detail12ContextState20finalizeTestCaseDataEv
FN:3598,3611,_ZN7doctest6String8allocateEj
FN:3613,3613,_ZN7doctest6String9setOnHeapEv
FN:3614,3614,_ZN7doctest6String7setLastEj
FN:3615,3618,_ZN7doctest6String7setSizeEj
FN:3620,3626,_ZN7doctest6String4copyERKS0_
FN:3628,3631,_ZN7doctest6StringC2Ev
FN:3633,3636,_ZN7doctest6StringD2Ev
FN:3638,3639,_ZN7doctest6StringC2EPKc
FN:3641,3643,_ZN7doctest6StringC2EPKcj
FN:3645,3647,_ZN7doctest6StringC2ERSij
FN:3649,3649,_ZN7doctest6StringC2ERKS0_
FN:3651,3660,_ZN7doctest6StringaSERKS0_
FN:3662,3710,_ZN7doctest6StringpLERKS0_
FN:3712,3716,_ZN7doctest6StringC2EOS0_
FN:3718,3727,_ZN7doctest6StringaSEOS0_
FN:3729,3731,_ZNK7doctest6StringixEj
FN:3733,3737,_ZN7doctest6StringixEj
FN:3740,3744,_ZNK7doctest6String4sizeEv
FN:3747,3751,_ZNK7doctest6String8capacityEv
FN:3753,3759,_ZNO7doctest6String6substrEjj
FN:3761,3764,_ZNKR7doctest6String6substrEjj
FN:3766,3773,_ZNK7doctest6String4findEcj
FN:3775,3781,_ZNK7doctest6String5rfindEcj
FN:3783,3787,_ZNK7doctest6String7compareEPKcb
FN:3789,3791,_ZNK7doctest6String7compareERKS0_b
FN:3793,3793,_ZN7doctestplERKNS_6StringES2_
FN:3795,3795,_ZN7doctesteqERKNS_6StringES2_
FN:3796,3796,_ZN7doctestneERKNS_6StringES2_
FN:3797,3797,_ZN7doctestltERKNS_6StringES2_
FN:3798,3798,_ZN7doctestgtERKNS_6StringES2_
FN:3799,3799,_ZN7doctestleERKNS_6StringES2_
FN:3800,3800,_ZN7doctestgeERKNS_6StringES2_
FN:3802,3802,_ZN7doctestlsERSoRKNS_6StringE
FN:3804,3804,_ZN7doctest8ContainsC2ERKNS_6StringE
FN:3806,3808,_ZNK7doctest8Contains9checkWithERKNS_6StringE
FN:3810,3812,_ZN7doctest8toStringERKNS_8ContainsE
FN:3814,3814,_ZN7doctesteqERKNS_6StringERKNS_8ContainsE
FN:3815,3815,_ZN7doctesteqERKNS_8ContainsERKNS_6StringE
FN:3816,3816,_ZN7doctestneERKNS_6StringERKNS_8ContainsE
FN:3817,3817,_ZN7doctestneERKNS_8ContainsERKNS_6StringE
FN:3824,3827,_ZN7doctest5ColorlsERSoNS0_4EnumE
FN:3831,3868,_ZN7doctest12assertStringENS_10assertType4EnumE
FN:3871,3879,_ZN7doctest13failureStringENS_10assertType4EnumE
FN:3884,3897,_ZN7doctest20skipPathFromFilenameEPKc
FN:3901,3905,_ZNK7doctest16SubcaseSignatureeqERKS0_
FN:3907,3913,_ZNK7doctest16SubcaseSignatureltERKS0_
FN:3915,3915,_ZN7doctest13IContextScopeD0Ev
FN:3915,3915,_ZN7doctest13IContextScopeD2Ev
FN:3918,3921,_ZN7doctest6detail8filldataIPKvE4fillEPSoS3_
FN:3924,3928,_ZN7doctest6detail11toStreamLitIdEENS_6StringET_
FN:3924,3928,_ZN7doctest6detail11toStreamLitIeEENS_6StringET_
FN:3924,3928,_ZN7doctest6detail11toStreamLitIfEENS_6StringET_
FN:3924,3928,_ZN7doctest6detail11toStreamLitIiEENS_6StringET_
FN:3924,3928,_ZN7doctest6detail11toStreamLitIjEENS_6StringET_
FN:3924,3928,_ZN7doctest6detail11toStreamLitIlEENS_6StringET_
FN:3924,3928,_ZN7doctest6detail11toStreamLitImEENS_6StringET_
FN:3924,3928,_ZN7doctest6detail11toStreamLitIsEENS_6StringET_
FN:3924,3928,_ZN7doctest6detail11toStreamLitItEENS_6StringET_
FN:3924,3928,_ZN7doctest6detail11toStreamLitIxEENS_6StringET_
FN:3924,3928,_ZN7doctest6detail11toStreamLitIyEENS_6StringET_
FN:3940,3940,_ZN7doctest8toStringENS_6StringE
FN:3942,3942,_ZN7doctest8toStringEDn
FN:3944,3944,_ZN7doctest8toStringEb
FN:3946,3946,_ZN7doctest8toStringEf
FN:3947,3947,_ZN7doctest8toStringEd
FN:3948,3948,_ZN7doctest8toStringEe
FN:3950,3950,_ZN7doctest8toStringEc
FN:3951,3951,_ZN7doctest8toStringEa
FN:3952,3952,_ZN7doctest8toStringEh
FN:3953,3953,_ZN7doctest8toStringEs
FN:3954,3954,_ZN7doctest8toStringEt
FN:3955,3955,_ZN7doctest8toStringEi
FN:3956,3956,_ZN7doctest8toStringEj
FN:3957,3957,_ZN7doctest8toStringEl
FN:3958,3958,_ZN7doctest8toStringEm
FN:3959,3959,_ZN7doctest8toStringEx
FN:3960,3960,_ZN7doctest8toStringEy
FN:3962,3965,_ZN7doctest6ApproxC2Ed
FN:3967,3972,_ZNK7doctest6ApproxclEd
FN:3974,3977,_ZN7doctest6Approx7epsilonEd
FN:3978,3981,_ZN7doctest6Approx5scaleEd
FN:3983,3987,_ZN7doctesteqEdRKNS_6ApproxE
FN:3988,3988,_ZN7doctesteqERKNS_6ApproxEd
FN:3989,3989,_ZN7doctestneEdRKNS_6ApproxE
FN:3990,3990,_ZN7doctestneERKNS_6ApproxEd
FN:3991,3991,_ZN7doctestleEdRKNS_6ApproxE
FN:3992,3992,_ZN7doctestleERKNS_6ApproxEd
FN:3993,3993,_ZN7doctestgeEdRKNS_6ApproxE
FN:3994,3994,_ZN7doctestgeERKNS_6ApproxEd
FN:3995,3995,_ZN7doctestltEdRKNS_6ApproxE
FN:3996,3996,_ZN7doctestltERKNS_6ApproxEd
FN:3997,3997,_ZN7doctestgtEdRKNS_6ApproxE
FN:3998,3998,_ZN7doctestgtERKNS_6ApproxEd
FN:4000,4002,_ZN7doctest8toStringERKNS_6ApproxE
FN:4003,4003,_ZN7doctest17getContextOptionsEv
FN:4007,4009,_ZNK7doctest5IsNaNIdEcvbEv
FN:4007,4009,_ZNK7doctest5IsNaNIeEcvbEv
FN:4007,4009,_ZNK7doctest5IsNaNIfEcvbEv
FN:4015,4015,_ZN7doctest8toStringIdEENS_6StringENS_5IsNaNIT_EE
FN:4015,4015,_ZN7doctest8toStringIeEENS_6StringENS_5IsNaNIT_EE
FN:4015,4015,_ZN7doctest8toStringIfEENS_6StringENS_5IsNaNIT_EE
FN:4016,4016,_ZN7doctest8toStringENS_5IsNaNIfEE
FN:4017,4017,_ZN7doctest8toStringENS_5IsNaNIdEE
FN:4018,4018,_ZN7doctest8toStringENS_5IsNaNIeEE
FN:4060,4063,_ZN28doctest_detail_test_suite_ns19getCurrentTestSuiteEv
FN:4072,4075,_ZN7doctest12_GLOBAL__N_112getReportersEv
FN:4076,4079,_ZN7doctest12_GLOBAL__N_112getListenersEv
FN:4086,4097,_ZN7doctest6detail18checkIfShouldThrowENS_10assertType4EnumE
FN:4100,4103,_ZN7doctest6detail14throwExceptionEv
FN:4113,4147,_ZN7doctest12_GLOBAL__N_17wildcmpEPKcS2_b
FN:4150,4158,_ZN7doctest12_GLOBAL__N_110matchesAnyEPKcRKSt6vectorINS_6StringESaIS4_EEbb
FN:4175,4177,_ZN7doctest12_GLOBAL__N_14hashERKNS_16SubcaseSignatureE
FN:4197,4205,_ZN7doctest6detail7Subcase12checkFiltersEv
FN:4207,4237,_ZN7doctest6detail7SubcaseC2ERKNS_6StringEPKci
FN:4243,4273,_ZN7doctest6detail7SubcaseD2Ev
FN:4279,4279,_ZNK7doctest6detail7SubcasecvbEv
FN:4281,4283,_ZN7doctest6detail6ResultC2EbRKNS_6StringE
FN:4285,4286,_ZN7doctest6detail20ExpressionDecomposerC2ENS_10assertType4EnumE
FN:4288,4291,_ZN7doctest6detail9TestSuitemlEPKc
FN:4293,4311,_ZN7doctest6detail8TestCaseC2EPFvvEPKcjRKNS0_9TestSuiteERKNS_6StringEi
FN:4313,4316,_ZN7doctest6detail8TestCaseC2ERKS1_
FN:4319,4329,_ZN7doctest6detail8TestCaseaSERKS1_
FN:4332,4341,_ZN7doctest6detail8TestCasemlEPKc
FN:4343,4354,_ZNK7doctest6detail8TestCaseltERKS1_
FN:4357,4360,_ZN7doctest6detail18getRegisteredTestsEv
FN:4365,4374,_ZN7doctest12_GLOBAL__N_119fileOrderComparatorEPKNS_6detail8TestCaseES4_
FN:4377,4382,_ZN7doctest12_GLOBAL__N_120suiteOrderComparatorEPKNS_6detail8TestCaseES4_
FN:4385,4390,_ZN7doctest12_GLOBAL__N_119nameOrderComparatorEPKNS_6detail8TestCaseES4_
FN:4393,4465,_ZN7doctest12_GLOBAL__N_115color_to_streamERSoNS_5Color4EnumE
FN:4468,4471,_ZN7doctest12_GLOBAL__N_123getExceptionTranslatorsEv
FN:4473,4498,_ZN7doctest12_GLOBAL__N_124translateActiveExceptionEv
FN:4503,4506,_ZN7doctest6detail7regTestERKNS0_8TestCaseE
FN:4509,4512,_ZN7doctest6detail12setTestSuiteERKNS0_9TestSuiteE
FN:4527,4537,_ZN7doctest6detail16isDebuggerActiveEv
FN:4572,4576,_ZN7doctest6detail31registerExceptionTranslatorImplEPKNS0_20IExceptionTranslatorE
FN:4580,4582,_ZN7doctest6detail16ContextScopeBaseC2Ev
FN:4584,4590,_ZN7doctest6detail16ContextScopeBaseC2EOS1_
FN:4599,4610,_ZN7doctest6detail16ContextScopeBase7destroyEv
FN:4800,4812,_ZN7doctest12_GLOBAL__N_121FatalConditionHandler12handleSignalEi
FN:4822,4835,_ZN7doctest12_GLOBAL__N_121FatalConditionHandlerC2Ev
FN:4838,4848,_ZN7doctest12_GLOBAL__N_121FatalConditionHandler5resetEv
FN:4883,4898,_ZN7doctest12_GLOBAL__N_111reportFatalERKNSt7__cxx1112basic_stringIcSt11char_traitsIcESaIcEEE
FN:4902,4911,_ZN7doctest10AssertDataC2ENS_10assertType4EnumEPKciS4_S4_RKNS0_14StringContainsE
FN:4914,4916,_ZN7doctest6detail13ResultBuilderC2ENS_10assertType4EnumEPKciS5_S5_RKNS_6StringE
FN:4918,4920,_ZN7doctest6detail13ResultBuilderC2ENS_10assertType4EnumEPKciS5_S5_RKNS_8ContainsE
FN:4922,4925,_ZN7doctest6detail13ResultBuilder9setResultERKNS0_6ResultE
FN:4927,4930,_ZN7doctest6detail13ResultBuilder18translateExceptionEv
FN:4932,4960,_ZN7doctest6detail13ResultBuilder3logEv
FN:4962,4965,_ZNK7doctest6detail13ResultBuilder5reactEv
FN:4967,4972,_ZN7doctest6detail31failed_out_of_a_testing_contextERKNS_10AssertDataE
FN:4974,4985,_ZN7doctest6detail13decomp_assertENS_10assertType4EnumEPKciS4_RKNS0_6ResultE
FN:4987,4992,_ZN7doctest6detail14MessageBuilderC2EPKciNS_10assertType4EnumE
FN:4994,4997,_ZN7doctest6detail14MessageBuilderD2Ev
FN:4999,4999,_ZN7doctest6detail20IExceptionTranslatorD0Ev
FN:4999,4999,_ZN7doctest6detail20IExceptionTranslatorD2Ev
FN:5001,5019,_ZN7doctest6detail14MessageBuilder3logEv
FN:5021,5024,_ZN7doctest6detail14MessageBuilder5reactEv
FN:5098,5102,_ZN7doctest12_GLOBAL__N_19XmlWriter14writeAttributeINS_6StringEEERS1_RKNSt7__cxx1112basic_stringIcSt11char_traitsIcESaIcEEERKT_
FN:5098,5102,_ZN7doctest12_GLOBAL__N_19XmlWriter14writeAttributeIdEERS1_RKNSt7__cxx1112basic_stringIcSt11char_traitsIcESaIcEEERKT_
FN:5098,5102,_ZN7doctest12_GLOBAL__N_19XmlWriter14writeAttributeIiEERS1_RKNSt7__cxx1112basic_stringIcSt11char_traitsIcESaIcEEERKT_
FN:5098,5102,_ZN7doctest12_GLOBAL__N_19XmlWriter14writeAttributeIjEERS1_RKNSt7__cxx1112basic_stringIcSt11char_traitsIcESaIcEEERKT_
FN:5136,5147,_ZN7doctest12_GLOBAL__N_112_GLOBAL__N_113trailingBytesEh
FN:5149,5160,_ZN7doctest12_GLOBAL__N_112_GLOBAL__N_111headerValueEh
FN:5162,5168,_ZN7doctest12_GLOBAL__N_112_GLOBAL__N_113hexEscapeCharERSoh
FN:5177,5269,_ZNK7doctest12_GLOBAL__N_19XmlEncode8encodeToERSo
FN:5309,5312,_ZN7doctest12_GLOBAL__N_19XmlWriterD2Ev
FN:5314,5322,_ZN7doctest12_GLOBAL__N_19XmlWriter12startElementERKNSt7__cxx1112basic_stringIcSt11char_traitsIcESaIcEEE
FN:5324,5328,_ZN7doctest12_GLOBAL__N_19XmlWriter13scopedElementERKNSt7__cxx1112basic_stringIcSt11char_traitsIcESaIcEEE
FN:5330,5343,_ZN7doctest12_GLOBAL__N_19XmlWriter10endElementEv
FN:5345,5349,_ZN7doctest12_GLOBAL__N_19XmlWriter14writeAttributeERKNSt7__cxx1112basic_stringIcSt11char_traitsIcESaIcEEES9_
FN:5351,5355,_ZN7doctest12_GLOBAL__N_19XmlWriter14writeAttributeERKNSt7__cxx1112basic_stringIcSt11char_traitsIcESaIcEEEPKc
FN:5357,5360,_ZN7doctest12_GLOBAL__N_19XmlWriter14writeAttributeERKNSt7__cxx1112basic_stringIcSt11char_traitsIcESaIcEEEb
FN:5362,5372,_ZN7doctest12_GLOBAL__N_19XmlWriter9writeTextERKNSt7__cxx1112basic_stringIcSt11char_traitsIcESaIcEEEb
FN:5391,5396,_ZN7doctest12_GLOBAL__N_19XmlWriter15ensureTagClosedEv
FN:5428,5439,_ZN7doctest12_GLOBAL__N_111XmlReporter12log_contextsEv
FN:5443,5473,_ZN7doctest12_GLOBAL__N_111XmlReporter20test_case_start_implERKNS_12TestCaseDataE
FN:5479,5509,_ZN7doctest12_GLOBAL__N_111XmlReporter12report_queryERKNS_9QueryDataE
FN:5511,5536,_ZN7doctest12_GLOBAL__N_111XmlReporter14test_run_startEv
FN:5538,5555,_ZN7doctest12_GLOBAL__N_111XmlReporter12test_run_endERKNS_12TestRunStatsE
FN:5557,5560,_ZN7doctest12_GLOBAL__N_111XmlReporter15test_case_startERKNS_12TestCaseDataE
FN:5562,5562,_ZN7doctest12_GLOBAL__N_111XmlReporter17test_case_reenterERKNS_12TestCaseDataE
FN:5564,5577,_ZN7doctest12_GLOBAL__N_111XmlReporter13test_case_endERKNS_20CurrentTestCaseStatsE
FN:5579,5585,_ZN7doctest12_GLOBAL__N_111XmlReporter19test_case_exceptionERKNS_17TestCaseExceptionE
FN:5587,5593,_ZN7doctest12_GLOBAL__N_111XmlReporter13subcase_startERKNS_16SubcaseSignatureE
FN:5595,5595,_ZN7doctest12_GLOBAL__N_111XmlReporter11subcase_endEv
FN:5597,5624,_ZN7doctest12_GLOBAL__N_111XmlReporter10log_assertERKNS_10AssertDataE
FN:5626,5639,_ZN7doctest12_GLOBAL__N_111XmlReporter11log_messageERKNS_11MessageDataE
FN:5641,5647,_ZN7doctest12_GLOBAL__N_111XmlReporter17test_case_skippedERKNS_12TestCaseDataE
FN:5652,5702,_ZN7doctest12_GLOBAL__N_129fulltext_log_assert_to_streamERSoRKNS_10AssertDataE
FN:5718,5737,_ZN7doctest12_GLOBAL__N_113JUnitReporter17JUnitTestCaseData19getCurrentTimestampEv
FN:5741,5742,_ZN7doctest12_GLOBAL__N_113JUnitReporter17JUnitTestCaseData16JUnitTestMessageC2ERKNSt7__cxx1112basic_stringIcSt11char_traitsIcESaIcEEESB_SB_
FN:5744,5745,_ZN7doctest12_GLOBAL__N_113JUnitReporter17JUnitTestCaseData16JUnitTestMessageC2ERKNSt7__cxx1112basic_stringIcSt11char_traitsIcESaIcEEESB_
FN:5752,5753,_ZN7doctest12_GLOBAL__N_113JUnitReporter17JUnitTestCaseData13JUnitTestCaseC2ERKNSt7__cxx1112basic_stringIcSt11char_traitsIcESaIcEEESB_
FN:5764,5768,_ZN7doctest12_GLOBAL__N_113JUnitReporter17JUnitTestCaseData32appendSubcaseNamesToLastTestcaseESt6vectorINS_6StringESaIS4_EE
FN:5808,5810,_ZN7doctest12_GLOBAL__N_113JUnitReporter12report_queryERKNS_9QueryDataE
FN:5812,5814,_ZN7doctest12_GLOBAL__N_113JUnitReporter14test_run_startEv
FN:5816,5861,_ZN7doctest12_GLOBAL__N_113JUnitReporter12test_run_endERKNS_12TestRunStatsE
FN:5863,5866,_ZN7doctest12_GLOBAL__N_113JUnitReporter15test_case_startERKNS_12TestCaseDataE
FN:5868,5875,_ZN7doctest12_GLOBAL__N_113JUnitReporter17test_case_reenterERKNS_12TestCaseDataE
FN:5877,5881,_ZN7doctest12_GLOBAL__N_113JUnitReporter13test_case_endERKNS_20CurrentTestCaseStatsE
FN:5883,5886,_ZN7doctest12_GLOBAL__N_113JUnitReporter19test_case_exceptionERKNS_17TestCaseExceptionE
FN:5888,5890,_ZN7doctest12_GLOBAL__N_113JUnitReporter13subcase_startERKNS_16SubcaseSignatureE
FN:5892,5892,_ZN7doctest12_GLOBAL__N_113JUnitReporter11subcase_endEv
FN:5894,5907,_ZN7doctest12_GLOBAL__N_113JUnitReporter10log_assertERKNS_10AssertDataE
FN:5909,5924,_ZN7doctest12_GLOBAL__N_113JUnitReporter11log_messageERKNS_11MessageDataE
FN:5926,5926,_ZN7doctest12_GLOBAL__N_113JUnitReporter17test_case_skippedERKNS_12TestCaseDataE
FN:5928,5940,_ZN7doctest12_GLOBAL__N_113JUnitReporter12log_contextsERNSt7__cxx1119basic_ostringstreamIcSt11char_traitsIcESaIcEEE
FN:5982,5986,_ZN7doctest12_GLOBAL__N_115ConsoleReporter19separator_to_streamEv
FN:6000,6004,_ZN7doctest12_GLOBAL__N_115ConsoleReporter34successOrFailColoredStringToStreamEbNS_10assertType4EnumEPKc
FN:6006,6020,_ZN7doctest12_GLOBAL__N_115ConsoleReporter12log_contextsEv
FN:6023,6028,_ZN7doctest12_GLOBAL__N_115ConsoleReporter19file_line_to_streamEPKciS3_
FN:6030,6060,_ZN7doctest12_GLOBAL__N_115ConsoleReporter12logTestStartEv
FN:6062,6066,_ZN7doctest12_GLOBAL__N_115ConsoleReporter12printVersionEv
FN:6068,6074,_ZN7doctest12_GLOBAL__N_115ConsoleReporter10printIntroEv
FN:6076,6191,_ZN7doctest12_GLOBAL__N_115ConsoleReporter9printHelpEv
FN:6193,6205,_ZN7doctest12_GLOBAL__N_115ConsoleReporter24printRegisteredReportersEv
FN:6195,6202,_ZZN7doctest12_GLOBAL__N_115ConsoleReporter24printRegisteredReportersEvENKUlRKSt3mapISt4pairIiNS_6StringEEPFPNS_9IReporterERKNS_14ContextOptionsEESt4lessIS5_ESaIS3_IKS5_SC_EEEPKcE_clESK_SM_
FN:6211,6250,_ZN7doctest12_GLOBAL__N_115ConsoleReporter12report_queryERKNS_9QueryDataE
FN:6252,6255,_ZN7doctest12_GLOBAL__N_115ConsoleReporter14test_run_startEv
FN:6257,6290,_ZN7doctest12_GLOBAL__N_115ConsoleReporter12test_run_endERKNS_12TestRunStatsE
FN:6292,6297,_ZN7doctest12_GLOBAL__N_115ConsoleReporter15test_case_startERKNS_12TestCaseDataE
FN:6299,6301,_ZN7doctest12_GLOBAL__N_115ConsoleReporter17test_case_reenterERKNS_12TestCaseDataE
FN:6303,6338,_ZN7doctest12_GLOBAL__N_115ConsoleReporter13test_case_endERKNS_20CurrentTestCaseStatsE
FN:6340,6363,_ZN7doctest12_GLOBAL__N_115ConsoleReporter19test_case_exceptionERKNS_17TestCaseExceptionE
FN:6365,6369,_ZN7doctest12_GLOBAL__N_115ConsoleReporter13subcase_startERKNS_16SubcaseSignatureE
FN:6371,6374,_ZN7doctest12_GLOBAL__N_115ConsoleReporter11subcase_endEv
FN:6376,6390,_ZN7doctest12_GLOBAL__N_115ConsoleReporter10log_assertERKNS_10AssertDataE
FN:6392,6406,_ZN7doctest12_GLOBAL__N_115ConsoleReporter11log_messageERKNS_11MessageDataE
FN:6408,6408,_ZN7doctest12_GLOBAL__N_115ConsoleReporter17test_case_skippedERKNS_12TestCaseDataE
FN:6450,6482,_ZN7doctest12_GLOBAL__N_115parseOptionImplEiPKPKcS2_PNS_6StringE
FN:6485,6495,_ZN7doctest12_GLOBAL__N_111parseOptionEiPKPKcS2_PNS_6StringERKS5_
FN:6498,6500,_ZN7doctest12_GLOBAL__N_19parseFlagEiPKPKcS2_
FN:6503,6546,_ZN7doctest12_GLOBAL__N_117parseCommaSepArgsEiPKPKcS2_RSt6vectorINS_6StringESaIS6_EE
FN:6509,6515,_ZZN7doctest12_GLOBAL__N_117parseCommaSepArgsEiPKPKcS2_RSt6vectorINS_6StringESaIS6_EEENKUlvE_clEv
FN:6555,6587,_ZN7doctest12_GLOBAL__N_114parseIntOptionEiPKPKcS2_NS0_10optionTypeERi
FN:6590,6595,_ZN7doctest7ContextC2EiPKPKc
FN:6597,6601,_ZN7doctest7ContextD2Ev
FN:6603,6607,_ZN7doctest7Context16applyCommandLineEiPKPKc
FN:6610,6733,_ZN7doctest7Context9parseArgsEiPKPKcb
FN:6736,6736,_ZN7doctest7Context9addFilterEPKcS2_
FN:6739,6742,_ZN7doctest7Context12clearFiltersEv
FN:6745,6747,_ZN7doctest7Context9setOptionEPKcb
FN:6750,6752,_ZN7doctest7Context9setOptionEPKci
FN:6755,6759,_ZN7doctest7Context9setOptionEPKcS2_
FN:6762,6762,_ZN7doctest7Context10shouldExitEv
FN:6764,6764,_ZN7doctest7Context36setAsDefaultForAssertsOutOfTestCasesEv
FN:6766,6766,_ZN7doctest7Context16setAssertHandlerEPFvRKNS_10AssertDataEE
FN:6768,6768,_ZN7doctest7Context7setCoutEPSo
FN:6780,6780,_ZN7doctest14DiscardOStreamUt_6xsputnEPKcl
FN:6782,6785,_ZN7doctest14DiscardOStreamUt_8overflowEi
FN:6789,6790,_ZN7doctest14DiscardOStreamC1Ev
FN:6794,7056,_ZN7doctest7Context3runEv
FN:6826,6844,_ZZN7doctest7Context3runEvENKUlvE_clEv
FN:7058,7058,_ZN7doctest9IReporterD0Ev
FN:7058,7058,_ZN7doctest9IReporterD2Ev
FN:7060,7060,_ZN7doctest9IReporter23get_num_active_contextsEv
FN:7061,7063,_ZN7doctest9IReporter19get_active_contextsEv
FN:7065,7065,_ZN7doctest9IReporter28get_num_stringified_contextsEv
FN:7066,7068,_ZN7doctest9IReporter24get_stringified_contextsEv
FN:7071,7076,_ZN7doctest6detail20registerReporterImplEPKciPFPNS_9IReporterERKNS_14ContextOptionsEEb
FN:7085,7085,main
FN:854,854,_ZN7doctest10AssertData14StringContains5checkERKNS_6StringE
FNDA:0,_ZN7doctest6detail8toStreamIA10_cEENS_6StringERKT_
FNDA:0,_ZN7doctest6detail8toStreamIA5_cEENS_6StringERKT_
FNDA:0,_ZN7doctest6detail8toStreamIA7_cEENS_6StringERKT_
FNDA:0,_ZN7doctest6detail8toStreamIA8_cEENS_6StringERKT_
FNDA:0,_ZN7doctest6detail8toStreamIA9_cEENS_6StringERKT_
FNDA:0,_ZN7doctest6detail8toStreamINSt7__cxx1112basic_stringIcSt11char_traitsIcESaIcEEEEENS_6StringERKT_
FNDA:0,_ZN7doctest6detail8filldataIA10_KcE4fillEPSoRS3_
FNDA:0,_ZN7doctest6detail8filldataIA5_KcE4fillEPSoRS3_
FNDA:0,_ZN7doctest6detail8filldataIA7_KcE4fillEPSoRS3_
FNDA:0,_ZN7doctest6detail8filldataIA8_KcE4fillEPSoRS3_
FNDA:0,_ZN7doctest6detail8filldataIA9_KcE4fillEPSoRS3_
FNDA:0,_ZN7doctest5IsNaNIdEC2Edb
FNDA:0,_ZN7doctest5IsNaNIeEC2Eeb
FNDA:0,_ZN7doctest5IsNaNIfEC2Efb
FNDA:0,_ZNK7doctest5IsNaNIdEntEv
FNDA:0,_ZNK7doctest5IsNaNIeEntEv
FNDA:0,_ZNK7doctest5IsNaNIfEntEv
FNDA:0,_ZN7doctest6detail19stringifyBinaryExprINSt7__cxx1112basic_stringIcSt11char_traitsIcESaIcEEEA10_cEENS_6StringERKT_PKcRKT0_
FNDA:0,_ZN7doctest6detail19stringifyBinaryExprINSt7__cxx1112basic_stringIcSt11char_traitsIcESaIcEEEA5_cEENS_6StringERKT_PKcRKT0_
FNDA:0,_ZN7doctest6detail19stringifyBinaryExprINSt7__cxx1112basic_stringIcSt11char_traitsIcESaIcEEEA7_cEENS_6StringERKT_PKcRKT0_
FNDA:0,_ZN7doctest6detail19stringifyBinaryExprINSt7__cxx1112basic_stringIcSt11char_traitsIcESaIcEEEA8_cEENS_6StringERKT_PKcRKT0_
FNDA:0,_ZN7doctest6detail19stringifyBinaryExprINSt7__cxx1112basic_stringIcSt11char_traitsIcESaIcEEEA9_cEENS_6StringERKT_PKcRKT0_
FNDA:0,_ZN7doctest6detail19stringifyBinaryExprIddEENS_6StringERKT_PKcRKT0_
FNDA:0,_ZN7doctest6detail19stringifyBinaryExprIdiEENS_6StringERKT_PKcRKT0_
FNDA:0,_ZN7doctest6detail19stringifyBinaryExprIiiEENS_6StringERKT_PKcRKT0_
FNDA:1,_ZN7doctest6detail14Expression_lhsINSt7__cxx1112basic_stringIcSt11char_traitsIcESaIcEEEEeqIRA10_KcEEDTcmcvveqclL_ZNS0_7declvalIS7_EEOT_vEEcl7declvalISE_EEcvNS0_6ResultEilEESF_
FNDA:4,_ZN7doctest6detail14Expression_lhsINSt7__cxx1112basic_stringIcSt11char_traitsIcESaIcEEEEeqIRA5_KcEEDTcmcvveqclL_ZNS0_7declvalIS7_EEOT_vEEcl7declvalISE_EEcvNS0_6ResultEilEESF_
FNDA:2,_ZN7doctest6detail14Expression_lhsINSt7__cxx1112basic_stringIcSt11char_traitsIcESaIcEEEEeqIRA7_KcEEDTcmcvveqclL_ZNS0_7declvalIS7_EEOT_vEEcl7declvalISE_EEcvNS0_6ResultEilEESF_
FNDA:2,_ZN7doctest6detail14Expression_lhsINSt7__cxx1112basic_stringIcSt11char_traitsIcESaIcEEEEeqIRA8_KcEEDTcmcvveqclL_ZNS0_7declvalIS7_EEOT_vEEcl7declvalISE_EEcvNS0_6ResultEilEESF_
FNDA:2,_ZN7doctest6detail14Expression_lhsINSt7__cxx1112basic_stringIcSt11char_traitsIcESaIcEEEEeqIRA9_KcEEDTcmcvveqclL_ZNS0_7declvalIS7_EEOT_vEEcl7declvalISE_EEcvNS0_6ResultEilEESF_
FNDA:10,_ZN7doctest6detail14Expression_lhsIdEeqIiEEDTcmcvveqclL_ZNS0_7declvalIdEEOT_vEEcl7declvalIS5_EEcvNS0_6ResultEilEES6_
FNDA:7,_ZN7doctest6detail14Expression_lhsIiEeqIiEEDTcmcvveqclL_ZNS0_7declvalIiEEOT_vEEcl7declvalIS5_EEcvNS0_6ResultEilEES6_
FNDA:11,_ZN7doctest6detail14Expression_lhsIdEltIdEEDTcmcvvltclL_ZNS0_7declvalIdEEOT_vEEcl7declvalIS5_EEcvNS0_6ResultEilEES6_
FNDA:20,_ZN7doctest6detail8TestCaseD2Ev
FNDA:0,_ZN7doctest6detail15reporterCreatorINS_12_GLOBAL__N_111XmlReporterEEEPNS_9IReporterERKNS_14ContextOptionsE
FNDA:0,_ZN7doctest6detail15reporterCreatorINS_12_GLOBAL__N_113JUnitReporterEEEPNS_9IReporterERKNS_14ContextOptionsE
FNDA:1,_ZN7doctest6detail15reporterCreatorINS_12_GLOBAL__N_115ConsoleReporterEEEPNS_9IReporterERKNS_14ContextOptionsE
FNDA:0,_ZN7doctest12_GLOBAL__N_115throw_exceptionISt11logic_errorEEvRKT_
FNDA:1,_ZN7doctest12_GLOBAL__N_17stricmpEPKcS2_
FNDA:0,_ZN7doctest6detail10._anon_1513popEv
FNDA:0,_ZN7doctest6detail8tlssPushEv
FNDA:0,_ZN7doctest6detail7tlssPopEv
FNDA:0,_ZN7doctest6detail15getCurrentTicksEv
FNDA:10,_ZNK7doctest6detail5Timer17getElapsedSecondsEv
FNDA:54,_ZN7doctest6detail15MultiLaneAtomicIiEppEi
FNDA:54,_ZN7doctest6detail15MultiLaneAtomicIiE8myAtomicEv
FNDA:10,_ZN7doctest6detail12ContextState20finalizeTestCaseDataEv
FNDA:103,_ZN7doctest6String8allocateEj
FNDA:0,_ZN7doctest6String9setOnHeapEv
FNDA:0,_ZN7doctest6String7setLastEj
FNDA:0,_ZN7doctest6String7setSizeEj
FNDA:345,_ZN7doctest6String4copyERKS0_
FNDA:49,_ZN7doctest6StringC2Ev
FNDA:334,_ZN7doctest6StringD2Ev
FNDA:103,_ZN7doctest6StringC2EPKc
FNDA:0,_ZN7doctest6StringC2EPKcj
FNDA:0,_ZN7doctest6StringC2ERSij
FNDA:0,_ZN7doctest6StringC2ERKS0_
FNDA:155,_ZN7doctest6StringaSERKS0_
FNDA:20,_ZN7doctest6StringpLERKS0_
FNDA:0,_ZN7doctest6StringC2EOS0_
FNDA:31,_ZN7doctest6StringaSEOS0_
FNDA:0,_ZNK7doctest6StringixEj
FNDA:0,_ZN7doctest6StringixEj
FNDA:0,_ZNK7doctest6String4sizeEv
FNDA:0,_ZNK7doctest6String8capacityEv
FNDA:0,_ZNO7doctest6String6substrEjj
FNDA:0,_ZNKR7doctest6String6substrEjj
FNDA:0,_ZNK7doctest6String4findEcj
FNDA:0,_ZNK7doctest6String5rfindEcj
FNDA:24,_ZNK7doctest6String7compareEPKcb
FNDA:0,_ZNK7doctest6String7compareERKS0_b
FNDA:20,_ZN7doctestplERKNS_6StringES2_
FNDA:0,_ZN7doctesteqERKNS_6StringES2_
FNDA:0,_ZN7doctestneERKNS_6StringES2_
FNDA:0,_ZN7doctestltERKNS_6StringES2_
FNDA:0,_ZN7doctestgtERKNS_6StringES2_
FNDA:0,_ZN7doctestleERKNS_6StringES2_
FNDA:0,_ZN7doctestgeERKNS_6StringES2_
FNDA:0,_ZN7doctestlsERSoRKNS_6StringE
FNDA:0,_ZN7doctest8ContainsC2ERKNS_6StringE
FNDA:0,_ZNK7doctest8Contains9checkWithERKNS_6StringE
FNDA:0,_ZN7doctest8toStringERKNS_8ContainsE
FNDA:0,_ZN7doctesteqERKNS_6StringERKNS_8ContainsE
FNDA:0,_ZN7doctesteqERKNS_8ContainsERKNS_6StringE
FNDA:0,_ZN7doctestneERKNS_6StringERKNS_8ContainsE
FNDA:0,_ZN7doctestneERKNS_8ContainsERKNS_6StringE
FNDA:0,_ZN7doctest5ColorlsERSoNS0_4EnumE
FNDA:0,_ZN7doctest12assertStringENS_10assertType4EnumE
FNDA:0,_ZN7doctest13failureStringENS_10assertType4EnumE
FNDA:0,_ZN7doctest20skipPathFromFilenameEPKc
FNDA:0,_ZNK7doctest16SubcaseSignatureeqERKS0_
FNDA:0,_ZNK7doctest16SubcaseSignatureltERKS0_
FNDA:0,_ZN7doctest13IContextScopeD0Ev
FNDA:0,_ZN7doctest13IContextScopeD2Ev
FNDA:0,_ZN7doctest6detail8filldataIPKvE4fillEPSoS3_
FNDA:0,_ZN7doctest6detail11toStreamLitIdEENS_6StringET_
FNDA:0,_ZN7doctest6detail11toStreamLitIeEENS_6StringET_
FNDA:0,_ZN7doctest6detail11toStreamLitIfEENS_6StringET_
FNDA:0,_ZN7doctest6detail11toStreamLitIiEENS_6StringET_
FNDA:0,_ZN7doctest6detail11toStreamLitIjEENS_6StringET_
FNDA:0,_ZN7doctest6detail11toStreamLitIlEENS_6StringET_
FNDA:0,_ZN7doctest6detail11toStreamLitImEENS_6StringET_
FNDA:0,_ZN7doctest6detail11toStreamLitIsEENS_6StringET_
FNDA:0,_ZN7doctest6detail11toStreamLitItEENS_6StringET_
FNDA:0,_ZN7doctest6detail11toStreamLitIxEENS_6StringET_
FNDA:0,_ZN7doctest6detail11toStreamLitIyEENS_6StringET_
FNDA:0,_ZN7doctest8toStringENS_6StringE
FNDA:0,_ZN7doctest8toStringEDn
FNDA:0,_ZN7doctest8toStringEb
FNDA:0,_ZN7doctest8toStringEf
FNDA:0,_ZN7doctest8toStringEd
FNDA:0,_ZN7doctest8toStringEe
FNDA:0,_ZN7doctest8toStringEc
FNDA:0,_ZN7doctest8toStringEa
FNDA:0,_ZN7doctest8toStringEh
FNDA:0,_ZN7doctest8toStringEs
FNDA:0,_ZN7doctest8toStringEt
FNDA:0,_ZN7doctest8toStringEi
FNDA:0,_ZN7doctest8toStringEj
FNDA:0,_ZN7doctest8toStringEl
FNDA:0,_ZN7doctest8toStringEm
FNDA:0,_ZN7doctest8toStringEx
FNDA:0,_ZN7doctest8toStringEy
FNDA:0,_ZN7doctest6ApproxC2Ed
FNDA:0,_ZNK7doctest6ApproxclEd
FNDA:0,_ZN7doctest6Approx7epsilonEd
FNDA:0,_ZN7doctest6Approx5scaleEd
FNDA:0,_ZN7doctesteqEdRKNS_6ApproxE
FNDA:0,_ZN7doctesteqERKNS_6ApproxEd
FNDA:0,_ZN7doctestneEdRKNS_6ApproxE
FNDA:0,_ZN7doctestneERKNS_6ApproxEd
FNDA:0,_ZN7doctestleEdRKNS_6ApproxE
FNDA:0,_ZN7doctestleERKNS_6ApproxEd
FNDA:0,_ZN7doctestgeEdRKNS_6ApproxE
FNDA:0,_ZN7doctestgeERKNS_6ApproxEd
FNDA:0,_ZN7doctestltEdRKNS_6ApproxE
FNDA:0,_ZN7doctestltERKNS_6ApproxEd
FNDA:0,_ZN7doctestgtEdRKNS_6ApproxE
FNDA:0,_ZN7doctestgtERKNS_6ApproxEd
FNDA:0,_ZN7doctest8toStringERKNS_6ApproxE
FNDA:49,_ZN7doctest17getContextOptionsEv
FNDA:0,_ZNK7doctest5IsNaNIdEcvbEv
FNDA:0,_ZNK7doctest5IsNaNIeEcvbEv
FNDA:0,_ZNK7doctest5IsNaNIfEcvbEv
FNDA:0,_ZN7doctest8toStringIdEENS_6StringENS_5IsNaNIT_EE
FNDA:0,_ZN7doctest8toStringIeEENS_6StringENS_5IsNaNIT_EE
FNDA:0,_ZN7doctest8toStringIfEENS_6StringENS_5IsNaNIT_EE
FNDA:0,_ZN7doctest8toStringENS_5IsNaNIfEE
FNDA:0,_ZN7doctest8toStringENS_5IsNaNIdEE
FNDA:0,_ZN7doctest8toStringENS_5IsNaNIeEE
FNDA:10,_ZN28doctest_detail_test_suite_ns19getCurrentTestSuiteEv
FNDA:4,_ZN7doctest12_GLOBAL__N_112getReportersEv
FNDA:1,_ZN7doctest12_GLOBAL__N_112getListenersEv
FNDA:0,_ZN7doctest6detail18checkIfShouldThrowENS_10assertType4EnumE
FNDA:0,_ZN7doctest6detail14throwExceptionEv
FNDA:3,_ZN7doctest12_GLOBAL__N_17wildcmpEPKcS2_b
FNDA:63,_ZN7doctest12_GLOBAL__N_110matchesAnyEPKcRKSt6vectorINS_6StringESaIS4_EEbb
FNDA:0,_ZN7doctest12_GLOBAL__N_14hashERKNS_16SubcaseSignatureE
FNDA:0,_ZN7doctest6detail7Subcase12checkFiltersEv
FNDA:0,_ZN7doctest6detail7SubcaseC2ERKNS_6StringEPKci
FNDA:0,_ZN7doctest6detail7SubcaseD2Ev
FNDA:0,_ZNK7doctest6detail7SubcasecvbEv
FNDA:39,_ZN7doctest6detail6ResultC2EbRKNS_6StringE
FNDA:39,_ZN7doctest6detail20ExpressionDecomposerC2ENS_10assertType4EnumE
FNDA:1,_ZN7doctest6detail9TestSuitemlEPKc
FNDA:10,_ZN7doctest6detail8TestCaseC2EPFvvEPKcjRKNS0_9TestSuiteERKNS_6StringEi
FNDA:10,_ZN7doctest6detail8TestCaseC2ERKS1_
FNDA:10,_ZN7doctest6detail8TestCaseaSERKS1_
FNDA:10,_ZN7doctest6detail8TestCasemlEPKc
FNDA:45,_ZNK7doctest6detail8TestCaseltERKS1_
FNDA:11,_ZN7doctest6detail18getRegisteredTestsEv
FNDA:18,_ZN7doctest12_GLOBAL__N_119fileOrderComparatorEPKNS_6detail8TestCaseES4_
FNDA:0,_ZN7doctest12_GLOBAL__N_120suiteOrderComparatorEPKNS_6detail8TestCaseES4_
FNDA:0,_ZN7doctest12_GLOBAL__N_119nameOrderComparatorEPKNS_6detail8TestCaseES4_
FNDA:33,_ZN7doctest12_GLOBAL__N_115color_to_streamERSoNS_5Color4EnumE
FNDA:10,_ZN7doctest12_GLOBAL__N_123getExceptionTranslatorsEv
FNDA:10,_ZN7doctest12_GLOBAL__N_124translateActiveExceptionEv
FNDA:10,_ZN7doctest6detail7regTestERKNS0_8TestCaseE
FNDA:1,_ZN7doctest6detail12setTestSuiteERKNS0_9TestSuiteE
FNDA:0,_ZN7doctest6detail16isDebuggerActiveEv
FNDA:0,_ZN7doctest6detail31registerExceptionTranslatorImplEPKNS0_20IExceptionTranslatorE
FNDA:0,_ZN7doctest6detail16ContextScopeBaseC2Ev
FNDA:0,_ZN7doctest6detail16ContextScopeBaseC2EOS1_
FNDA:0,_ZN7doctest6detail16ContextScopeBase7destroyEv
FNDA:0,_ZN7doctest12_GLOBAL__N_121FatalConditionHandler12handleSignalEi
FNDA:10,_ZN7doctest12_GLOBAL__N_121FatalConditionHandlerC2Ev
FNDA:20,_ZN7doctest12_GLOBAL__N_121FatalConditionHandler5resetEv
FNDA:0,_ZN7doctest12_GLOBAL__N_111reportFatalERKNSt7__cxx1112basic_stringIcSt11char_traitsIcESaIcEEE
FNDA:54,_ZN7doctest10AssertDataC2ENS_10assertType4EnumEPKciS4_S4_RKNS0_14StringContainsE
FNDA:54,_ZN7doctest6detail13ResultBuilderC2ENS_10assertType4EnumEPKciS5_S5_RKNS_6StringE
FNDA:0,_ZN7doctest6detail13ResultBuilderC2ENS_10assertType4EnumEPKciS5_S5_RKNS_8ContainsE
FNDA:39,_ZN7doctest6detail13ResultBuilder9setResultERKNS0_6ResultE
FNDA:10,_ZN7doctest6detail13ResultBuilder18translateExceptionEv
FNDA:54,_ZN7doctest6detail13ResultBuilder3logEv
FNDA:54,_ZNK7doctest6detail13ResultBuilder5reactEv
FNDA:0,_ZN7doctest6detail31failed_out_of_a_testing_contextERKNS_10AssertDataE
FNDA:0,_ZN7doctest6detail13decomp_assertENS_10assertType4EnumEPKciS4_RKNS0_6ResultE
FNDA:0,_ZN7doctest6detail14MessageBuilderC2EPKciNS_10assertType4EnumE
FNDA:0,_ZN7doctest6detail14MessageBuilderD2Ev
FNDA:0,_ZN7doctest6detail20IExceptionTranslatorD0Ev
FNDA:0,_ZN7doctest6detail20IExceptionTranslatorD2Ev
FNDA:0,_ZN7doctest6detail14MessageBuilder3logEv
FNDA:0,_ZN7doctest6detail14MessageBuilder5reactEv
FNDA:0,_ZN7doctest12_GLOBAL__N_19XmlWriter14writeAttributeINS_6StringEEERS1_RKNSt7__cxx1112basic_stringIcSt11char_traitsIcESaIcEEERKT_
FNDA:0,_ZN7doctest12_GLOBAL__N_19XmlWriter14writeAttributeIdEERS1_RKNSt7__cxx1112basic_stringIcSt11char_traitsIcESaIcEEERKT_
FNDA:0,_ZN7doctest12_GLOBAL__N_19XmlWriter14writeAttributeIiEERS1_RKNSt7__cxx1112basic_stringIcSt11char_traitsIcESaIcEEERKT_
FNDA:0,_ZN7doctest12_GLOBAL__N_19XmlWriter14writeAttributeIjEERS1_RKNSt7__cxx1112basic_stringIcSt11char_traitsIcESaIcEEERKT_
FNDA:0,_ZN7doctest12_GLOBAL__N_112_GLOBAL__N_113trailingBytesEh
FNDA:0,_ZN7doctest12_GLOBAL__N_112_GLOBAL__N_111headerValueEh
FNDA:0,_ZN7doctest12_GLOBAL__N_112_GLOBAL__N_113hexEscapeCharERSoh
FNDA:0,_ZNK7doctest12_GLOBAL__N_19XmlEncode8encodeToERSo
FNDA:0,_ZN7doctest12_GLOBAL__N_19XmlWriterD2Ev
FNDA:0,_ZN7doctest12_GLOBAL__N_19XmlWriter12startElementERKNSt7__cxx1112basic_stringIcSt11char_traitsIcESaIcEEE
FNDA:0,_ZN7doctest12_GLOBAL__N_19XmlWriter13scopedElementERKNSt7__cxx1112basic_stringIcSt11char_traitsIcESaIcEEE
FNDA:0,_ZN7doctest12_GLOBAL__N_19XmlWriter10endElementEv
FNDA:0,_ZN7doctest12_GLOBAL__N_19XmlWriter14writeAttributeERKNSt7__cxx1112basic_stringIcSt11char_traitsIcESaIcEEES9_
FNDA:0,_ZN7doctest12_GLOBAL__N_19XmlWriter14writeAttributeERKNSt7__cxx1112basic_stringIcSt11char_traitsIcESaIcEEEPKc
FNDA:0,_ZN7doctest12_GLOBAL__N_19XmlWriter14writeAttributeERKNSt7__cxx1112basic_stringIcSt11char_traitsIcESaIcEEEb
FNDA:0,_ZN7doctest12_GLOBAL__N_19XmlWriter9writeTextERKNSt7__cxx1112basic_stringIcSt11char_traitsIcESaIcEEEb
FNDA:0,_ZN7doctest12_GLOBAL__N_19XmlWriter15ensureTagClosedEv
FNDA:0,_ZN7doctest12_GLOBAL__N_111XmlReporter12log_contextsEv
FNDA:0,_ZN7doctest12_GLOBAL__N_111XmlReporter20test_case_start_implERKNS_12TestCaseDataE
FNDA:0,_ZN7doctest12_GLOBAL__N_111XmlReporter12report_queryERKNS_9QueryDataE
FNDA:0,_ZN7doctest12_GLOBAL__N_111XmlReporter14test_run_startEv
FNDA:0,_ZN7doctest12_GLOBAL__N_111XmlReporter12test_run_endERKNS_12TestRunStatsE
FNDA:0,_ZN7doctest12_GLOBAL__N_111XmlReporter15test_case_startERKNS_12TestCaseDataE
FNDA:0,_ZN7doctest12_GLOBAL__N_111XmlReporter17test_case_reenterERKNS_12TestCaseDataE
FNDA:0,_ZN7doctest12_GLOBAL__N_111XmlReporter13test_case_endERKNS_20CurrentTestCaseStatsE
FNDA:0,_ZN7doctest12_GLOBAL__N_111XmlReporter19test_case_exceptionERKNS_17TestCaseExceptionE
FNDA:0,_ZN7doctest12_GLOBAL__N_111XmlReporter13subcase_startERKNS_16SubcaseSignatureE
FNDA:0,_ZN7doctest12_GLOBAL__N_111XmlReporter11subcase_endEv
FNDA:0,_ZN7doctest12_GLOBAL__N_111XmlReporter10log_assertERKNS_10AssertDataE
FNDA:0,_ZN7doctest12_GLOBAL__N_111XmlReporter11log_messageERKNS_11MessageDataE
FNDA:0,_ZN7doctest12_GLOBAL__N_111XmlReporter17test_case_skippedERKNS_12TestCaseDataE
FNDA:0,_ZN7doctest12_GLOBAL__N_129fulltext_log_assert_to_streamERSoRKNS_10AssertDataE
FNDA:0,_ZN7doctest12_GLOBAL__N_113JUnitReporter17JUnitTestCaseData19getCurrentTimestampEv
FNDA:0,_ZN7doctest12_GLOBAL__N_113JUnitReporter17JUnitTestCaseData16JUnitTestMessageC2ERKNSt7__cxx1112basic_stringIcSt11char_traitsIcESaIcEEESB_SB_
FNDA:0,_ZN7doctest12_GLOBAL__N_113JUnitReporter17JUnitTestCaseData16JUnitTestMessageC2ERKNSt7__cxx1112basic_stringIcSt11char_traitsIcESaIcEEESB_
FNDA:0,_ZN7doctest12_GLOBAL__N_113JUnitReporter17JUnitTestCaseData13JUnitTestCaseC2ERKNSt7__cxx1112basic_stringIcSt11char_traitsIcESaIcEEESB_
FNDA:0,_ZN7doctest12_GLOBAL__N_113JUnitReporter17JUnitTestCaseData32appendSubcaseNamesToLastTestcaseESt6vectorINS_6StringESaIS4_EE
FNDA:0,_ZN7doctest12_GLOBAL__N_113JUnitReporter12report_queryERKNS_9QueryDataE
FNDA:0,_ZN7doctest12_GLOBAL__N_113JUnitReporter14test_run_startEv
FNDA:0,_ZN7doctest12_GLOBAL__N_113JUnitReporter12test_run_endERKNS_12TestRunStatsE
FNDA:0,_ZN7doctest12_GLOBAL__N_113JUnitReporter15test_case_startERKNS_12TestCaseDataE
FNDA:0,_ZN7doctest12_GLOBAL__N_113JUnitReporter17test_case_reenterERKNS_12TestCaseDataE
FNDA:0,_ZN7doctest12_GLOBAL__N_113JUnitReporter13test_case_endERKNS_20CurrentTestCaseStatsE
FNDA:0,_ZN7doctest12_GLOBAL__N_113JUnitReporter19test_case_exceptionERKNS_17TestCaseExceptionE
FNDA:0,_ZN7doctest12_GLOBAL__N_113JUnitReporter13subcase_startERKNS_16SubcaseSignatureE
FNDA:0,_ZN7doctest12_GLOBAL__N_113JUnitReporter11subcase_endEv
FNDA:0,_ZN7doctest12_GLOBAL__N_113JUnitReporter10log_assertERKNS_10AssertDataE
FNDA:0,_ZN7doctest12_GLOBAL__N_113JUnitReporter11log_messageERKNS_11MessageDataE
FNDA:0,_ZN7doctest12_GLOBAL__N_113JUnitReporter17test_case_skippedERKNS_12TestCaseDataE
FNDA:0,_ZN7doctest12_GLOBAL__N_113JUnitReporter12log_contextsERNSt7__cxx1119basic_ostringstreamIcSt11char_traitsIcESaIcEEE
FNDA:1,_ZN7doctest12_GLOBAL__N_115ConsoleReporter19separator_to_streamEv
FNDA:0,_ZN7doctest12_GLOBAL__N_115ConsoleReporter34successOrFailColoredStringToStreamEbNS_10assertType4EnumEPKc
FNDA:0,_ZN7doctest12_GLOBAL__N_115ConsoleReporter12log_contextsEv
FNDA:0,_ZN7doctest12_GLOBAL__N_115ConsoleReporter19file_line_to_streamEPKciS3_
FNDA:0,_ZN7doctest12_GLOBAL__N_115ConsoleReporter12logTestStartEv
FNDA:1,_ZN7doctest12_GLOBAL__N_115ConsoleReporter12printVersionEv
FNDA:1,_ZN7doctest12_GLOBAL__N_115ConsoleReporter10printIntroEv
FNDA:0,_ZN7doctest12_GLOBAL__N_115ConsoleReporter9printHelpEv
FNDA:0,_ZN7doctest12_GLOBAL__N_115ConsoleReporter24printRegisteredReportersEv
FNDA:0,_ZZN7doctest12_GLOBAL__N_115ConsoleReporter24printRegisteredReportersEvENKUlRKSt3mapISt4pairIiNS_6StringEEPFPNS_9IReporterERKNS_14ContextOptionsEESt4lessIS5_ESaIS3_IKS5_SC_EEEPKcE_clESK_SM_
FNDA:0,_ZN7doctest12_GLOBAL__N_115ConsoleReporter12report_queryERKNS_9QueryDataE
FNDA:1,_ZN7doctest12_GLOBAL__N_115ConsoleReporter14test_run_startEv
FNDA:1,_ZN7doctest12_GLOBAL__N_115ConsoleReporter12test_run_endERKNS_12TestRunStatsE
FNDA:10,_ZN7doctest12_GLOBAL__N_115ConsoleReporter15test_case_startERKNS_12TestCaseDataE
FNDA:0,_ZN7doctest12_GLOBAL__N_115ConsoleReporter17test_case_reenterERKNS_12TestCaseDataE
FNDA:10,_ZN7doctest12_GLOBAL__N_115ConsoleReporter13test_case_endERKNS_20CurrentTestCaseStatsE
FNDA:0,_ZN7doctest12_GLOBAL__N_115ConsoleReporter19test_case_exceptionERKNS_17TestCaseExceptionE
FNDA:0,_ZN7doctest12_GLOBAL__N_115ConsoleReporter13subcase_startERKNS_16SubcaseSignatureE
FNDA:0,_ZN7doctest12_GLOBAL__N_115ConsoleReporter11subcase_endEv
FNDA:54,_ZN7doctest12_GLOBAL__N_115ConsoleReporter10log_assertERKNS_10AssertDataE
FNDA:0,_ZN7doctest12_GLOBAL__N_115ConsoleReporter11log_messageERKNS_11MessageDataE
FNDA:0,_ZN7doctest12_GLOBAL__N_115ConsoleReporter17test_case_skippedERKNS_12TestCaseDataE
FNDA:258,_ZN7doctest12_GLOBAL__N_115parseOptionImplEiPKPKcS2_PNS_6StringE
FNDA:129,_ZN7doctest12_GLOBAL__N_111parseOptionEiPKPKcS2_PNS_6StringERKS5_
FNDA:55,_ZN7doctest12_GLOBAL__N_19parseFlagEiPKPKcS2_
FNDA:18,_ZN7doctest12_GLOBAL__N_117parseCommaSepArgsEiPKPKcS2_RSt6vectorINS_6StringESaIS6_EE
FNDA:0,_ZZN7doctest12_GLOBAL__N_117parseCommaSepArgsEiPKPKcS2_RSt6vectorINS_6StringESaIS6_EEENKUlvE_clEv
FNDA:52,_ZN7doctest12_GLOBAL__N_114parseIntOptionEiPKPKcS2_NS0_10optionTypeERi
FNDA:1,_ZN7doctest7ContextC2EiPKPKc
FNDA:1,_ZN7doctest7ContextD2Ev
FNDA:0,_ZN7doctest7Context16applyCommandLineEiPKPKc
FNDA:1,_ZN7doctest7Context9parseArgsEiPKPKcb
FNDA:0,_ZN7doctest7Context9addFilterEPKcS2_
FNDA:0,_ZN7doctest7Context12clearFiltersEv
FNDA:0,_ZN7doctest7Context9setOptionEPKcb
FNDA:0,_ZN7doctest7Context9setOptionEPKci
FNDA:0,_ZN7doctest7Context9setOptionEPKcS2_
FNDA:0,_ZN7doctest7Context10shouldExitEv
FNDA:0,_ZN7doctest7Context36setAsDefaultForAssertsOutOfTestCasesEv
FNDA:0,_ZN7doctest7Context16setAssertHandlerEPFvRKNS_10AssertDataEE
FNDA:0,_ZN7doctest7Context7setCoutEPSo
FNDA:0,_ZN7doctest14DiscardOStreamUt_6xsputnEPKcl
FNDA:0,_ZN7doctest14DiscardOStreamUt_8overflowEi
FNDA:1,_ZN7doctest14DiscardOStreamC1Ev
FNDA:1,_ZN7doctest7Context3runEv
FNDA:1,_ZZN7doctest7Context3runEvENKUlvE_clEv
FNDA:0,_ZN7doctest9IReporterD0Ev
FNDA:0,_ZN7doctest9IReporterD2Ev
FNDA:0,_ZN7doctest9IReporter23get_num_active_contextsEv
FNDA:0,_ZN7doctest9IReporter19get_active_contextsEv
FNDA:0,_ZN7doctest9IReporter28get_num_stringified_contextsEv
FNDA:0,_ZN7doctest9IReporter24get_stringified_contextsEv
FNDA:3,_ZN7doctest6detail20registerReporterImplEPKciPFPNS_9IReporterERKNS_14ContextOptionsEEb
FNDA:1,main
FNDA:0,_ZN7doctest10AssertData14StringContains5checkERKNS_6StringE
FNF:309
FNH:75
DA:611,1409
DA:642,176
DA:643,83
DA:644,23
DA:645,83
DA:647,0
DA:674,216
DA:808,50
DA:845,216
DA:851,108
DA:852,0
DA:854,0
DA:858,0
DA:865,0
DA:873,0
DA:885,0
DA:1052,0
DA:1053,0
DA:1057,0
DA:1060,0
DA:1064,0
DA:1065,0
DA:1066,0
DA:1067,0
DA:1073,0
DA:1074,0
DA:1106,0
DA:1107,0
DA:1151,0
DA:1155,0
DA:1180,0
DA:1181,0
DA:1182,0
DA:1294,0
DA:1295,0
DA:1354,0
DA:1356,0
DA:1395,39
DA:1499,11
DA:1504,39
DA:1505,11
DA:1506,11
DA:1527,28
DA:1530,11
DA:1581,39
DA:1582,39
DA:1644,50
DA:1681,54
DA:2026,0
DA:2042,0
DA:2087,1
DA:2104,1
DA:2105,1
DA:3284,0
DA:3286,0
DA:3307,1
DA:3308,9
DA:3309,5
DA:3310,5
DA:3311,1
DA:3312,4
DA:3341,0
DA:3342,0
DA:3343,0
DA:3346,0
DA:3347,0
DA:3348,0
DA:3350,0
DA:3351,0
DA:3352,0
DA:3353,0
DA:3354,0
DA:3356,0
DA:3358,0
DA:3359,0
DA:3362,0
DA:3363,0
DA:3394,20
DA:3395,20
DA:3396,0
DA:3397,20
DA:3401,0
DA:3403,20
DA:3410,10
DA:3454,108
DA:3456,54
DA:3457,54
DA:3464,50
DA:3466,40
DA:3467,40
DA:3468,1320
DA:3469,1280
DA:3474,20
DA:3475,20
DA:3479,20
DA:3481,660
DA:3482,640
DA:3483,640
DA:3500,54
DA:3502,54
DA:3503,1
DA:3505,54
DA:3534,1
DA:3535,1
DA:3536,1
DA:3537,1
DA:3538,1
DA:3539,1
DA:3540,1
DA:3541,1
DA:3542,1
DA:3545,10
DA:3546,10
DA:3549,10
DA:3550,10
DA:3551,10
DA:3552,10
DA:3554,10
DA:3555,0
DA:3557,20
DA:3558,10
DA:3559,0
DA:3561,10
DA:3562,0
DA:3563,0
DA:3565,0
DA:3567,10
DA:3568,0
DA:3569,10
DA:3570,0
DA:3571,0
DA:3573,0
DA:3577,10
DA:3578,10
DA:3582,10
DA:3583,10
DA:3584,0
DA:3585,10
DA:3598,103
DA:3599,103
DA:3600,103
DA:3601,103
DA:3602,103
DA:3604,0
DA:3605,0
DA:3606,0
DA:3607,0
DA:3608,0
DA:3609,0
DA:3613,0
DA:3614,103
DA:3615,0
DA:3616,0
DA:3617,0
DA:3618,0
DA:3620,345
DA:3621,345
DA:3622,345
DA:3624,0
DA:3626,345
DA:3628,259
DA:3629,259
DA:3630,259
DA:3631,49
DA:3633,720
DA:3634,478
DA:3635,0
DA:3636,11
DA:3638,103
DA:3639,206
DA:3641,103
DA:3642,103
DA:3643,0
DA:3645,0
DA:3646,0
DA:3647,0
DA:3649,3
DA:3651,155
DA:3652,155
DA:3653,155
DA:3654,0
DA:3656,155
DA:3659,155
DA:3662,20
DA:3663,40
DA:3664,40
DA:3665,20
DA:3666,20
DA:3667,20
DA:3669,20
DA:3671,20
DA:3674,0
DA:3676,0
DA:3678,0
DA:3679,0
DA:3680,0
DA:3681,0
DA:3683,0
DA:3686,0
DA:3688,0
DA:3689,0
DA:3692,0
DA:3693,0
DA:3694,0
DA:3696,0
DA:3698,0
DA:3700,0
DA:3702,0
DA:3703,0
DA:3705,0
DA:3709,20
DA:3712,4
DA:3713,4
DA:3714,4
DA:3715,4
DA:3716,0
DA:3718,31
DA:3719,31
DA:3720,31
DA:3721,0
DA:3722,31
DA:3723,31
DA:3724,31
DA:3726,31
DA:3729,0
DA:3730,0
DA:3733,0
DA:3734,0
DA:3735,0
DA:3736,0
DA:3740,95
DA:3741,40
DA:3742,95
DA:3743,0
DA:3747,0
DA:3748,0
DA:3750,0
DA:3753,0
DA:3754,0
DA:3755,0
DA:3756,0
DA:3757,0
DA:3758,0
DA:3761,0
DA:3762,0
DA:3763,0
DA:3766,0
DA:3767,0
DA:3768,0
DA:3769,0
DA:3770,0
DA:3771,0
DA:3775,0
DA:3776,0
DA:3777,0
DA:3778,0
DA:3779,0
DA:3783,24
DA:3784,24
DA:3785,2
DA:3786,46
DA:3789,23
DA:3790,0
DA:3793,20
DA:3795,0
DA:3796,0
DA:3797,10
DA:3798,0
DA:3799,0
DA:3800,0
DA:3802,0
DA:3804,0
DA:3806,0
DA:3807,0
DA:3810,0
DA:3811,0
DA:3814,0
DA:3815,0
DA:3816,0
DA:3817,0
DA:3824,33
DA:3825,6
DA:3826,11
DA:3831,0
DA:3838,0
DA:3840,0
DA:3841,0
DA:3843,0
DA:3845,0
DA:3847,0
DA:3849,0
DA:3851,0
DA:3853,0
DA:3855,0
DA:3856,0
DA:3857,0
DA:3858,0
DA:3859,0
DA:3860,0
DA:3862,0
DA:3863,0
DA:3865,0
DA:3871,0
DA:3872,0
DA:3874,0
DA:3876,0
DA:3877,0
DA:3884,0
DA:3886,0
DA:3887,0
DA:3888,0
DA:3889,0
DA:3890,0
DA:3892,0
DA:3901,0
DA:3902,0
DA:3903,0
DA:3904,0
DA:3907,0
DA:3908,0
DA:3909,0
DA:3910,0
DA:3911,0
DA:3912,0
DA:3915,0
DA:3918,0
DA:3919,0
DA:3920,0
DA:3921,0
DA:3924,0
DA:3925,0
DA:3926,0
DA:3927,0
DA:3940,0
DA:3942,0
DA:3944,0
DA:3946,0
DA:3947,0
DA:3948,0
DA:3950,0
DA:3951,0
DA:3952,0
DA:3953,0
DA:3954,0
DA:3955,0
DA:3956,0
DA:3957,0
DA:3958,0
DA:3959,0
DA:3960,0
DA:3962,10
DA:3963,0
DA:3964,0
DA:3965,0
DA:3967,0
DA:3968,0
DA:3969,0
DA:3970,0
DA:3971,0
DA:3974,0
DA:3975,0
DA:3976,0
DA:3978,0
DA:3979,0
DA:3980,0
DA:3983,10
DA:3985,10
DA:3986,0
DA:3988,0
DA:3989,0
DA:3990,10
DA:3991,0
DA:3992,0
DA:3993,0
DA:3994,0
DA:3995,0
DA:3996,0
DA:3997,0
DA:3998,0
DA:4000,0
DA:4001,0
DA:4003,0
DA:4007,0
DA:4008,0
DA:4015,0
DA:4016,0
DA:4017,0
DA:4018,0
DA:4060,10
DA:4061,10
DA:4062,10
DA:4072,4
DA:4073,4
DA:4074,4
DA:4076,1
DA:4077,1
DA:4078,1
DA:4086,0
DA:4087,0
DA:4090,0
DA:4091,0
DA:4092,0
DA:4093,0
DA:4100,0
DA:4101,0
DA:4102,0
DA:4113,3
DA:4114,3
DA:4115,3
DA:4117,10
DA:4118,9
DA:4122,7
DA:4123,7
DA:4126,1
DA:4127,0
DA:4128,0
DA:4131,0
DA:4132,0
DA:4133,0
DA:4135,0
DA:4136,0
DA:4138,0
DA:4139,0
DA:4143,1
DA:4144,0
DA:4146,1
DA:4150,63
DA:4152,63
DA:4154,35
DA:4155,6
DA:4156,31
DA:4161,0
DA:4162,0
DA:4167,0
DA:4168,0
DA:4169,0
DA:4170,0
DA:4171,0
DA:4172,0
DA:4175,0
DA:4176,0
DA:4179,0
DA:4180,0
DA:4181,0
DA:4182,0
DA:4183,0
DA:4185,0
DA:4188,0
DA:4189,0
DA:4190,0
DA:4191,0
DA:4193,0
DA:4197,0
DA:4198,0
DA:4199,0
DA:4201,0
DA:4207,0
DA:4208,0
DA:4209,0
DA:4210,0
DA:4211,0
DA:4213,0
DA:4215,0
DA:4216,0
DA:4217,0
DA:4218,0
DA:4221,0
DA:4223,0
DA:4224,0
DA:4225,0
DA:4226,0
DA:4227,0
DA:4228,0
DA:4229,0
DA:4231,0
DA:4232,0
DA:4233,0
DA:4234,0
DA:4237,0
DA:4243,0
DA:4244,0
DA:4245,0
DA:4247,0
DA:4249,0
DA:4250,0
DA:4251,0
DA:4252,0
DA:4254,0
DA:4258,0
DA:4262,0
DA:4263,0
DA:4268,0
DA:4271,0
DA:4273,0
DA:4279,0
DA:4281,39
DA:4282,39
DA:4283,39
DA:4285,39
DA:4286,39
DA:4288,1
DA:4289,1
DA:4290,1
DA:4293,10
DA:4294,10
DA:4295,10
DA:4296,10
DA:4297,10
DA:4298,10
DA:4299,10
DA:4300,10
DA:4301,10
DA:4302,10
DA:4303,10
DA:4304,10
DA:4305,10
DA:4306,10
DA:4308,10
DA:4309,10
DA:4310,10
DA:4311,10
DA:4313,10
DA:4314,10
DA:4315,10
DA:4316,10
DA:4319,10
DA:4320,10
DA:4321,10
DA:4322,10
DA:4323,10
DA:4324,10
DA:4326,10
DA:4327,0
DA:4328,10
DA:4332,10
DA:4333,10
DA:4335,10
DA:4336,0
DA:4338,0
DA:4340,10
DA:4343,45
DA:4345,45
DA:4346,45
DA:4347,0
DA:4348,0
DA:4349,0
DA:4350,0
DA:4351,0
DA:4352,0
DA:4353,0
DA:4357,11
DA:4358,11
DA:4359,11
DA:4365,18
DA:4368,18
DA:4369,18
DA:4370,0
DA:4371,18
DA:4372,18
DA:4373,0
DA:4377,0
DA:4378,0
DA:4379,0
DA:4380,0
DA:4381,0
DA:4385,0
DA:4386,0
DA:4387,0
DA:4388,0
DA:4389,0
DA:4393,33
DA:4394,33
DA:4395,33
DA:4397,66
DA:4398,33
DA:4399,0
DA:4401,33
DA:4403,33
DA:4405,3
DA:4406,0
DA:4407,5
DA:4408,1
DA:4409,0
DA:4410,0
DA:4411,0
DA:4412,0
DA:4413,0
DA:4414,24
DA:4415,24
DA:4416,24
DA:4417,24
DA:4420,33
DA:4468,10
DA:4469,10
DA:4470,10
DA:4473,10
DA:4475,10
DA:4476,10
DA:4477,10
DA:4478,0
DA:4479,0
DA:4481,10
DA:4482,10
DA:4483,10
DA:4484,10
DA:4485,0
DA:4486,0
DA:4487,0
DA:4488,0
DA:4489,0
DA:4490,10
DA:4491,10
DA:4492,10
DA:4493,10
DA:4498,10
DA:4503,10
DA:4504,10
DA:4505,10
DA:4509,1
DA:4510,1
DA:4511,1
DA:4520,0
DA:4521,0
DA:4527,0
DA:4528,0
DA:4529,0
DA:4530,0
DA:4531,0
DA:4532,0
DA:4533,0
DA:4535,0
DA:4536,0
DA:4537,0
DA:4572,0
DA:4573,0
DA:4574,0
DA:4575,0
DA:4576,0
DA:4578,0
DA:4580,0
DA:4581,0
DA:4582,0
DA:4584,0
DA:4585,0
DA:4586,0
DA:4588,0
DA:4589,0
DA:4590,0
DA:4599,0
DA:4601,0
DA:4605,0
DA:4606,0
DA:4607,0
DA:4608,0
DA:4609,0
DA:4610,0
DA:4800,0
DA:4801,0
DA:4802,0
DA:4803,0
DA:4804,0
DA:4805,0
DA:4806,0
DA:4809,0
DA:4810,0
DA:4811,0
DA:4812,0
DA:4814,1
DA:4815,2
DA:4818,1
DA:4819,1
DA:4822,10
DA:4823,10
DA:4824,10
DA:4825,10
DA:4826,10
DA:4827,10
DA:4828,10
DA:4829,10
DA:4830,10
DA:4831,10
DA:4832,70
DA:4833,60
DA:4835,10
DA:4837,0
DA:4838,20
DA:4839,20
DA:4841,70
DA:4842,60
DA:4845,10
DA:4846,10
DA:4848,20
DA:4872,54
DA:4873,54
DA:4874,54
DA:4877,0
DA:4878,0
DA:4879,0
DA:4883,0
DA:4884,0
DA:4886,0
DA:4888,0
DA:4889,0
DA:4890,0
DA:4893,0
DA:4895,0
DA:4897,0
DA:4898,0
DA:4902,54
DA:4903,54
DA:4904,54
DA:4905,54
DA:4906,54
DA:4911,54
DA:4914,54
DA:4915,54
DA:4916,108
DA:4918,0
DA:4919,0
DA:4920,0
DA:4922,39
DA:4923,39
DA:4924,39
DA:4925,39
DA:4927,10
DA:4928,10
DA:4929,10
DA:4930,10
DA:4932,54
DA:4933,54
DA:4934,0
DA:4935,54
DA:4936,0
DA:4937,54
DA:4938,10
DA:4939,44
DA:4940,0
DA:4941,44
DA:4942,5
DA:4945,108
DA:4946,10
DA:4948,54
DA:4949,54
DA:4950,108
DA:4952,54
DA:4953,0
DA:4954,0
DA:4955,0
DA:4958,54
DA:4959,54
DA:4962,54
DA:4963,54
DA:4964,0
DA:4965,54
DA:4967,0
DA:4968,0
DA:4969,0
DA:4971,0
DA:4972,0
DA:4974,0
DA:4976,0
DA:4982,0
DA:4983,0
DA:4984,0
DA:4985,0
DA:4987,0
DA:4988,0
DA:4989,0
DA:4990,0
DA:4991,0
DA:4992,0
DA:4994,0
DA:4995,0
DA:4996,0
DA:4997,0
DA:4999,0
DA:5001,0
DA:5002,0
DA:5003,0
DA:5004,0
DA:5007,0
DA:5009,0
DA:5012,0
DA:5013,0
DA:5014,0
DA:5017,0
DA:5018,0
DA:5021,0
DA:5022,0
DA:5023,0
DA:5024,0
DA:5036,0
DA:5066,0
DA:5067,0
DA:5068,0
DA:5098,0
DA:5099,0
DA:5100,0
DA:5101,0
DA:5102,0
DA:5136,0
DA:5137,0
DA:5140,0
DA:5143,0
DA:5146,0
DA:5149,0
DA:5150,0
DA:5151,0
DA:5153,0
DA:5154,0
DA:5156,0
DA:5157,0
DA:5159,0
DA:5162,0
DA:5163,0
DA:5164,0
DA:5165,0
DA:5166,0
DA:5167,0
DA:5168,0
DA:5172,0
DA:5173,0
DA:5174,0
DA:5177,0
DA:5181,0
DA:5182,0
DA:5183,0
DA:5184,0
DA:5185,0
DA:5187,0
DA:5189,0
DA:5190,0
DA:5192,0
DA:5195,0
DA:5196,0
DA:5197,0
DA:5199,0
DA:5202,0
DA:5207,0
DA:5208,0
DA:5209,0
DA:5213,0
DA:5214,0
DA:5215,0
DA:5224,0
DA:5226,0
DA:5227,0
DA:5230,0
DA:5232,0
DA:5233,0
DA:5234,0
DA:5239,0
DA:5240,0
DA:5241,0
DA:5242,0
DA:5243,0
DA:5244,0
DA:5247,0
DA:5249,0
DA:5251,0
DA:5252,0
DA:5253,0
DA:5257,0
DA:5258,0
DA:5262,0
DA:5263,0
DA:5269,0
DA:5271,0
DA:5272,0
DA:5273,0
DA:5276,0
DA:5277,0
DA:5294,0
DA:5295,0
DA:5296,0
DA:5297,0
DA:5299,0
DA:5300,0
DA:5301,0
DA:5304,0
DA:5309,0
DA:5310,0
DA:5311,0
DA:5312,0
DA:5314,0
DA:5315,0
DA:5316,0
DA:5317,0
DA:5318,0
DA:5319,0
DA:5320,0
DA:5321,0
DA:5324,0
DA:5325,0
DA:5326,0
DA:5327,0
DA:5328,0
DA:5330,0
DA:5331,0
DA:5332,0
DA:5333,0
DA:5334,0
DA:5335,0
DA:5338,0
DA:5340,0
DA:5341,0
DA:5342,0
DA:5345,0
DA:5346,0
DA:5347,0
DA:5348,0
DA:5351,0
DA:5352,0
DA:5353,0
DA:5354,0
DA:5357,0
DA:5358,0
DA:5359,0
DA:5362,0
DA:5363,0
DA:5364,0
DA:5365,0
DA:5366,0
DA:5367,0
DA:5368,0
DA:5369,0
DA:5371,0
DA:5391,0
DA:5392,0
DA:5393,0
DA:5394,0
DA:5396,0
DA:5398,0
DA:5399,0
DA:5402,0
DA:5403,0
DA:5404,0
DA:5405,0
DA:5424,0
DA:5425,0
DA:5426,0
DA:5428,0
DA:5429,0
DA:5430,0
DA:5431,0
DA:5432,0
DA:5433,0
DA:5434,0
DA:5435,0
DA:5436,0
DA:5438,0
DA:5439,0
DA:5441,0
DA:5443,0
DA:5444,0
DA:5445,0
DA:5446,0
DA:5447,0
DA:5448,0
DA:5455,0
DA:5456,0
DA:5457,0
DA:5460,0
DA:5461,0
DA:5462,0
DA:5463,0
DA:5464,0
DA:5465,0
DA:5467,0
DA:5468,0
DA:5469,0
DA:5470,0
DA:5471,0
DA:5472,0
DA:5473,0
DA:5479,0
DA:5480,0
DA:5481,0
DA:5482,0
DA:5483,0
DA:5484,0
DA:5485,0
DA:5486,0
DA:5487,0
DA:5488,0
DA:5489,0
DA:5490,0
DA:5491,0
DA:5492,0
DA:5493,0
DA:5494,0
DA:5495,0
DA:5496,0
DA:5498,0
DA:5499,0
DA:5500,0
DA:5501,0
DA:5502,0
DA:5503,0
DA:5504,0
DA:5505,0
DA:5506,0
DA:5508,0
DA:5509,0
DA:5511,0
DA:5512,0
DA:5515,0
DA:5521,0
DA:5522,0
DA:5523,0
DA:5526,0
DA:5527,0
DA:5528,0
DA:5529,0
DA:5530,0
DA:5531,0
DA:5532,0
DA:5533,0
DA:5534,0
DA:5535,0
DA:5536,0
DA:5538,0
DA:5539,0
DA:5540,0
DA:5542,0
DA:5543,0
DA:5544,0
DA:5546,0
DA:5547,0
DA:5548,0
DA:5549,0
DA:5550,0
DA:5551,0
DA:5552,0
DA:5554,0
DA:5555,0
DA:5557,0
DA:5558,0
DA:5559,0
DA:5560,0
DA:5562,0
DA:5564,0
DA:5565,0
DA:5566,0
DA:5567,0
DA:5568,0
DA:5569,0
DA:5570,0
DA:5571,0
DA:5572,0
DA:5573,0
DA:5574,0
DA:5576,0
DA:5577,0
DA:5579,0
DA:5580,0
DA:5582,0
DA:5583,0
DA:5584,0
DA:5585,0
DA:5587,0
DA:5588,0
DA:5589,0
DA:5590,0
DA:5591,0
DA:5592,0
DA:5593,0
DA:5595,0
DA:5597,0
DA:5598,0
DA:5599,0
DA:5601,0
DA:5603,0
DA:5604,0
DA:5605,0
DA:5606,0
DA:5607,0
DA:5609,0
DA:5611,0
DA:5612,0
DA:5614,0
DA:5615,0
DA:5616,0
DA:5617,0
DA:5618,0
DA:5619,0
DA:5621,0
DA:5623,0
DA:5624,0
DA:5626,0
DA:5627,0
DA:5629,0
DA:5630,0
DA:5631,0
DA:5632,0
DA:5634,0
DA:5636,0
DA:5638,0
DA:5639,0
DA:5641,0
DA:5642,0
DA:5643,0
DA:5644,0
DA:5645,0
DA:5647,0
DA:5652,0
DA:5653,0
DA:5655,0
DA:5656,0
DA:5658,0
DA:5659,0
DA:5660,0
DA:5662,0
DA:5664,0
DA:5665,0
DA:5666,0
DA:5667,0
DA:5669,0
DA:5672,0
DA:5674,0
DA:5676,0
DA:5677,0
DA:5678,0
DA:5680,0
DA:5681,0
DA:5682,0
DA:5684,0
DA:5686,0
DA:5687,0
DA:5689,0
DA:5690,0
DA:5691,0
DA:5692,0
DA:5693,0
DA:5695,0
DA:5696,0
DA:5697,0
DA:5698,0
DA:5700,0
DA:5702,0
DA:5716,0
DA:5718,0
DA:5721,0
DA:5722,0
DA:5723,0
DA:5725,0
DA:5729,0
DA:5732,0
DA:5733,0
DA:5735,0
DA:5736,0
DA:5741,0
DA:5742,0
DA:5744,0
DA:5745,0
DA:5752,0
DA:5753,0
DA:5760,0
DA:5761,0
DA:5762,0
DA:5764,0
DA:5765,0
DA:5766,0
DA:5767,0
DA:5768,0
DA:5770,0
DA:5771,0
DA:5772,0
DA:5773,0
DA:5774,0
DA:5777,0
DA:5778,0
DA:5779,0
DA:5782,0
DA:5783,0
DA:5784,0
DA:5798,0
DA:5799,0
DA:5800,0
DA:5802,0
DA:5808,0
DA:5809,0
DA:5810,0
DA:5812,0
DA:5813,0
DA:5814,0
DA:5816,0
DA:5818,0
DA:5823,0
DA:5824,0
DA:5825,0
DA:5826,0
DA:5827,0
DA:5828,0
DA:5829,0
DA:5830,0
DA:5832,0
DA:5833,0
DA:5835,0
DA:5836,0
DA:5837,0
DA:5838,0
DA:5839,0
DA:5840,0
DA:5842,0
DA:5844,0
DA:5845,0
DA:5846,0
DA:5847,0
DA:5848,0
DA:5851,0
DA:5852,0
DA:5853,0
DA:5854,0
DA:5857,0
DA:5859,0
DA:5860,0
DA:5861,0
DA:5863,0
DA:5864,0
DA:5865,0
DA:5866,0
DA:5868,0
DA:5869,0
DA:5870,0
DA:5871,0
DA:5873,0
DA:5874,0
DA:5875,0
DA:5877,0
DA:5878,0
DA:5879,0
DA:5880,0
DA:5881,0
DA:5883,0
DA:5884,0
DA:5885,0
DA:5886,0
DA:5888,0
DA:5889,0
DA:5890,0
DA:5892,0
DA:5894,0
DA:5895,0
DA:5896,0
DA:5898,0
DA:5900,0
DA:5901,0
DA:5902,0
DA:5904,0
DA:5905,0
DA:5906,0
DA:5907,0
DA:5909,0
DA:5910,0
DA:5911,0
DA:5913,0
DA:5915,0
DA:5916,0
DA:5917,0
DA:5919,0
DA:5920,0
DA:5922,0
DA:5923,0
DA:5924,0
DA:5926,0
DA:5928,0
DA:5929,0
DA:5930,0
DA:5931,0
DA:5933,0
DA:5934,0
DA:5935,0
DA:5936,0
DA:5937,0
DA:5940,0
DA:5948,0
DA:5970,1
DA:5971,1
DA:5972,1
DA:5982,1
DA:5983,1
DA:5985,1
DA:5986,1
DA:5988,0
DA:5990,0
DA:5992,0
DA:5995,0
DA:5996,0
DA:5997,0
DA:6000,0
DA:6002,0
DA:6003,0
DA:6004,0
DA:6006,0
DA:6007,0
DA:6008,0
DA:6009,0
DA:6011,0
DA:6012,0
DA:6013,0
DA:6014,0
DA:6015,0
DA:6019,0
DA:6020,0
DA:6023,0
DA:6025,0
DA:6026,0
DA:6027,0
DA:6028,0
DA:6030,0
DA:6031,0
DA:6034,0
DA:6035,0
DA:6036,0
DA:6037,0
DA:6038,0
DA:6039,0
DA:6040,0
DA:6041,0
DA:6042,0
DA:6044,0
DA:6045,0
DA:6046,0
DA:6049,0
DA:6050,0
DA:6051,0
DA:6052,0
DA:6053,0
DA:6057,0
DA:6059,0
DA:6062,1
DA:6063,1
DA:6064,1
DA:6065,1
DA:6066,1
DA:6068,1
DA:6069,1
DA:6070,1
DA:6071,1
DA:6072,1
DA:6074,1
DA:6076,0
DA:6077,0
DA:6078,0
DA:6080,0
DA:6081,0
DA:6082,0
DA:6083,0
DA:6084,0
DA:6085,0
DA:6086,0
DA:6087,0
DA:6088,0
DA:6089,0
DA:6091,0
DA:6092,0
DA:6093,0
DA:6095,0
DA:6096,0
DA:6097,0
DA:6098,0
DA:6099,0
DA:6100,0
DA:6101,0
DA:6102,0
DA:6103,0
DA:6104,0
DA:6105,0
DA:6106,0
DA:6107,0
DA:6108,0
DA:6109,0
DA:6111,0
DA:6112,0
DA:6113,0
DA:6114,0
DA:6115,0
DA:6116,0
DA:6117,0
DA:6118,0
DA:6119,0
DA:6120,0
DA:6121,0
DA:6122,0
DA:6123,0
DA:6124,0
DA:6125,0
DA:6126,0
DA:6127,0
DA:6128,0
DA:6129,0
DA:6130,0
DA:6131,0
DA:6132,0
DA:6133,0
DA:6134,0
DA:6135,0
DA:6136,0
DA:6137,0
DA:6138,0
DA:6139,0
DA:6140,0
DA:6141,0
DA:6142,0
DA:6143,0
DA:6144,0
DA:6145,0
DA:6146,0
DA:6147,0
DA:6148,0
DA:6149,0
DA:6150,0
DA:6151,0
DA:6152,0
DA:6153,0
DA:6154,0
DA:6155,0
DA:6156,0
DA:6157,0
DA:6158,0
DA:6159,0
DA:6160,0
DA:6161,0
DA:6162,0
DA:6163,0
DA:6164,0
DA:6165,0
DA:6166,0
DA:6167,0
DA:6168,0
DA:6169,0
DA:6170,0
DA:6171,0
DA:6172,0
DA:6173,0
DA:6174,0
DA:6175,0
DA:6176,0
DA:6177,0
DA:6178,0
DA:6179,0
DA:6180,0
DA:6181,0
DA:6182,0
DA:6183,0
DA:6184,0
DA:6185,0
DA:6189,0
DA:6190,0
DA:6191,0
DA:6193,0
DA:6194,0
DA:6195,0
DA:6196,0
DA:6197,0
DA:6198,0
DA:6199,0
DA:6200,0
DA:6202,0
DA:6203,0
DA:6204,0
DA:6205,0
DA:6211,0
DA:6212,0
DA:6213,0
DA:6214,0
DA:6215,0
DA:6216,0
DA:6217,0
DA:6218,0
DA:6219,0
DA:6220,0
DA:6221,0
DA:6222,0
DA:6225,0
DA:6226,0
DA:6228,0
DA:6230,0
DA:6231,0
DA:6232,0
DA:6234,0
DA:6235,0
DA:6236,0
DA:6238,0
DA:6239,0
DA:6241,0
DA:6243,0
DA:6244,0
DA:6245,0
DA:6246,0
DA:6247,0
DA:6248,0
DA:6250,0
DA:6252,1
DA:6253,1
DA:6254,1
DA:6255,1
DA:6257,1
DA:6258,1
DA:6261,1
DA:6262,1
DA:6264,1
DA:6265,1
DA:6266,1
DA:6267,1
DA:6268,1
DA:6269,1
DA:6270,1
DA:6271,1
DA:6272,1
DA:6273,1
DA:6274,1
DA:6275,1
DA:6276,1
DA:6277,1
DA:6278,1
DA:6280,1
DA:6281,1
DA:6282,1
DA:6283,1
DA:6284,1
DA:6285,2
DA:6286,1
DA:6287,1
DA:6288,1
DA:6289,2
DA:6292,10
DA:6293,10
DA:6294,10
DA:6295,10
DA:6296,10
DA:6297,10
DA:6299,0
DA:6300,0
DA:6301,0
DA:6303,10
DA:6304,10
DA:6309,10
DA:6310,10
DA:6311,0
DA:6313,10
DA:6314,0
DA:6315,0
DA:6317,10
DA:6318,0
DA:6319,0
DA:6321,10
DA:6322,0
DA:6323,10
DA:6324,0
DA:6325,10
DA:6326,0
DA:6327,10
DA:6328,0
DA:6329,0
DA:6330,10
DA:6331,0
DA:6332,0
DA:6334,10
DA:6335,0
DA:6337,10
DA:6340,0
DA:6341,0
DA:6342,0
DA:6343,0
DA:6345,0
DA:6347,0
DA:6348,0
DA:6350,0
DA:6351,0
DA:6353,0
DA:6354,0
DA:6355,0
DA:6356,0
DA:6357,0
DA:6358,0
DA:6359,0
DA:6362,0
DA:6363,0
DA:6365,0
DA:6366,0
DA:6367,0
DA:6368,0
DA:6369,0
DA:6371,0
DA:6372,0
DA:6373,0
DA:6374,0
DA:6376,54
DA:6377,54
DA:6378,54
DA:6380,0
DA:6382,0
DA:6384,0
DA:6385,0
DA:6387,0
DA:6389,0
DA:6390,0
DA:6392,0
DA:6393,0
DA:6394,0
DA:6396,0
DA:6398,0
DA:6400,0
DA:6401,0
DA:6402,0
DA:6403,0
DA:6404,0
DA:6405,0
DA:6406,0
DA:6408,0
DA:6450,258
DA:6452,516
DA:6453,258
DA:6454,258
DA:6455,258
DA:6457,0
DA:6459,0
DA:6460,0
DA:6465,0
DA:6466,0
DA:6468,0
DA:6469,0
DA:6470,0
DA:6471,0
DA:6472,0
DA:6485,129
DA:6487,129
DA:6488,74
DA:6491,129
DA:6494,129
DA:6498,55
DA:6499,55
DA:6503,18
DA:6505,18
DA:6506,18
DA:6508,0
DA:6509,0
DA:6510,0
DA:6511,0
DA:6512,0
DA:6514,0
DA:6515,0
DA:6517,0
DA:6518,0
DA:6519,0
DA:6520,0
DA:6521,0
DA:6522,0
DA:6523,0
DA:6524,0
DA:6525,0
DA:6526,0
DA:6528,0
DA:6530,0
DA:6532,0
DA:6533,0
DA:6535,0
DA:6539,0
DA:6540,0
DA:6542,0
DA:6543,0
DA:6544,0
DA:6546,18
DA:6555,52
DA:6557,52
DA:6558,52
DA:6561,0
DA:6564,0
DA:6565,0
DA:6566,0
DA:6567,0
DA:6571,0
DA:6572,0
DA:6575,0
DA:6576,0
DA:6577,0
DA:6578,0
DA:6580,0
DA:6581,0
DA:6582,0
DA:6587,52
DA:6590,1
DA:6591,1
DA:6592,1
DA:6593,1
DA:6594,1
DA:6595,1
DA:6597,1
DA:6598,1
DA:6599,0
DA:6600,1
DA:6601,1
DA:6603,0
DA:6604,0
DA:6605,0
DA:6606,0
DA:6607,0
DA:6610,1
DA:6611,1
DA:6614,1
DA:6615,1
DA:6616,1
DA:6617,1
DA:6618,1
DA:6619,1
DA:6620,1
DA:6621,1
DA:6622,1
DA:6623,1
DA:6624,1
DA:6625,1
DA:6626,1
DA:6627,1
DA:6628,1
DA:6629,1
DA:6630,1
DA:6631,1
DA:6634,1
DA:6635,1
DA:6661,2
DA:6662,2
DA:6663,1
DA:6665,1
DA:6666,1
DA:6668,1
DA:6669,1
DA:6671,1
DA:6672,1
DA:6673,1
DA:6674,1
DA:6675,1
DA:6676,1
DA:6677,1
DA:6678,1
DA:6679,1
DA:6680,1
DA:6681,1
DA:6682,1
DA:6683,1
DA:6684,1
DA:6685,1
DA:6686,1
DA:6687,1
DA:6688,1
DA:6689,1
DA:6690,1
DA:6691,1
DA:6694,1
DA:6695,1
DA:6696,1
DA:6697,1
DA:6698,1
DA:6699,1
DA:6700,1
DA:6702,2
DA:6703,2
DA:6704,1
DA:6705,0
DA:6706,0
DA:6708,2
DA:6709,1
DA:6710,0
DA:6711,0
DA:6713,2
DA:6714,1
DA:6715,0
DA:6716,0
DA:6718,2
DA:6719,1
DA:6720,0
DA:6721,0
DA:6723,2
DA:6724,1
DA:6725,0
DA:6726,0
DA:6728,2
DA:6729,1
DA:6730,0
DA:6731,0
DA:6733,1
DA:6736,0
DA:6739,0
DA:6740,0
DA:6741,0
DA:6742,0
DA:6745,0
DA:6746,0
DA:6747,0
DA:6750,0
DA:6751,0
DA:6752,0
DA:6755,0
DA:6756,0
DA:6757,0
DA:6758,0
DA:6759,0
DA:6762,0
DA:6764,0
DA:6766,0
DA:6768,0
DA:6773,2
DA:6780,0
DA:6782,0
DA:6783,0
DA:6784,0
DA:6789,1
DA:6790,1
DA:6794,1
DA:6795,1
DA:6798,1
DA:6800,1
DA:6801,1
DA:6803,1
DA:6804,1
DA:6806,1
DA:6807,1
DA:6808,1
DA:6809,0
DA:6810,2
DA:6812,0
DA:6813,0
DA:6817,1
DA:6824,1
DA:6826,2
DA:6827,1
DA:6829,1
DA:6830,0
DA:6833,1
DA:6834,1
DA:6837,2
DA:6838,1
DA:6839,1
DA:6841,1
DA:6842,0
DA:6844,1
DA:6847,1
DA:6848,2
DA:6851,4
DA:6852,6
DA:6853,1
DA:6859,1
DA:6860,0
DA:6868,1
DA:6869,0
DA:6871,0
DA:6874,1
DA:6875,11
DA:6876,10
DA:6877,1
DA:6880,1
DA:6881,1
DA:6882,2
DA:6883,0
DA:6884,0
DA:6885,0
DA:6886,0
DA:6887,0
DA:6888,0
DA:6891,0
DA:6892,0
DA:6893,0
DA:6895,0
DA:6897,0
DA:6898,0
DA:6906,1
DA:6908,1
DA:6909,1
DA:6911,1
DA:6912,2
DA:6915,11
DA:6916,10
DA:6918,10
DA:6919,10
DA:6920,10
DA:6922,20
DA:6923,0
DA:6924,10
DA:6925,0
DA:6926,10
DA:6927,0
DA:6928,10
DA:6929,0
DA:6930,10
DA:6931,0
DA:6932,10
DA:6935,10
DA:6936,10
DA:6939,10
DA:6940,10
DA:6943,10
DA:6944,0
DA:6945,0
DA:6946,0
DA:6947,0
DA:6950,10
DA:6951,0
DA:6954,10
DA:6955,0
DA:6956,0
DA:6960,10
DA:6961,0
DA:6962,0
DA:6963,0
DA:6964,0
DA:6966,0
DA:6970,10
DA:6971,10
DA:6973,10
DA:6974,10
DA:6977,10
DA:6978,10
DA:6980,10
DA:6982,20
DA:6984,10
DA:6986,10
DA:6988,10
DA:6990,10
DA:6992,10
DA:6993,10
DA:6995,10
DA:6998,10
DA:7001,10
DA:7005,10
DA:7007,10
DA:7008,10
DA:7011,0
DA:7012,0
DA:7013,0
DA:7014,0
DA:7016,0
DA:7017,0
DA:7021,10
DA:7022,0
DA:7023,0
DA:7024,0
DA:7027,10
DA:7028,0
DA:7029,10
DA:7030,10
DA:7033,10
DA:7035,20
DA:7037,10
DA:7040,10
DA:7045,1
DA:7046,2
DA:7048,0
DA:7049,0
DA:7050,0
DA:7051,0
DA:7052,0
DA:7055,1
DA:7056,1
DA:7058,0
DA:7060,0
DA:7061,0
DA:7062,0
DA:7065,0
DA:7066,0
DA:7067,0
DA:7071,3
DA:7072,3
DA:7073,3
DA:7075,0
DA:7076,3
DA:7085,1
LF:1967
LH:594
end_of_record
TN:
SF:/usr/include/c++/13.1.1/atomic
FNF:0
FNH:0
DA:79,10
DA:80,10
DA:86,0
DA:87,0
LF:4
LH:2
end_of_record
TN:
SF:/usr/include/c++/13.1.1/bit
FNF:0
FNH:0
DA:195,1
DA:198,1
DA:200,1
DA:203,1
DA:204,1
DA:205,1
DA:214,1
DA:215,1
DA:365,1
DA:367,1
DA:368,1
LF:11
LH:11
end_of_record
TN:
SF:/usr/include/c++/13.1.1/bits/alloc_traits.h
FNF:0
FNH:0
DA:481,36
DA:482,36
DA:515,31
DA:516,31
DA:532,27
DA:539,40
DA:541,13
DA:553,10
DA:559,13
DA:561,0
DA:586,112
DA:587,112
DA:944,2
DA:947,21
DA:948,0
LF:15
LH:13
end_of_record
TN:
SF:/usr/include/c++/13.1.1/bits/allocator.h
FNF:0
FNH:0
DA:163,67
DA:167,175
DA:168,175
DA:178,0
DA:184,244
DA:189,36
DA:198,36
DA:203,31
DA:210,31
LF:9
LH:8
end_of_record
TN:
SF:/usr/include/c++/13.1.1/bits/atomic_base.h
FNF:0
FNH:0
DA:371,10
DA:373,10
DA:385,1
DA:386,1
DA:473,650
DA:477,650
DA:478,650
DA:479,650
DA:481,650
DA:498,1280
DA:502,1280
DA:503,1280
DA:505,1280
DA:633,55
DA:635,1
LF:15
LH:15
end_of_record
TN:
SF:/usr/include/c++/13.1.1/bits/basic_ios.h
FNF:0
FNH:0
DA:117,0
DA:118,0
DA:137,0
DA:138,0
DA:201,0
DA:202,0
DA:282,0
DA:390,0
DA:392,0
DA:393,0
DA:460,1
DA:461,1
DA:462,1
LF:13
LH:3
end_of_record
TN:
SF:/usr/include/c++/13.1.1/bits/basic_string.h
FN:1456,1461,_ZNSt7__cxx1112basic_stringIcSt11char_traitsIcESaIcEE6appendEPKcm
FN:1470,1476,_ZNSt7__cxx1112basic_stringIcSt11char_traitsIcESaIcEE6appendEPKc
FN:2205,2211,_ZNSt7__cxx1112basic_stringIcSt11char_traitsIcESaIcEE7replaceEmmPKcm
FN:293,297,_ZNSt7__cxx1112basic_stringIcSt11char_traitsIcESaIcEE10_M_disposeEv
FN:3164,3166,_ZNKSt7__cxx1112basic_stringIcSt11char_traitsIcESaIcEE6substrEmm
FN:3184,3194,_ZNKSt7__cxx1112basic_stringIcSt11char_traitsIcESaIcEE7compareERKS4_
FN:3349,3359,_ZNKSt7__cxx1112basic_stringIcSt11char_traitsIcESaIcEE7compareEPKc
FN:3384,3395,_ZNKSt7__cxx1112basic_stringIcSt11char_traitsIcESaIcEE7compareEmmPKc
FN:3728,3733,_ZSteqIcSt11char_traitsIcESaIcEEbRKNSt7__cxx1112basic_stringIT_T0_T1_EEPKS5_
FN:584,592,_ZNSt7__cxx1112basic_stringIcSt11char_traitsIcESaIcEEC2ERKS4_mm
FN:644,653,_ZNSt7__cxx1112basic_stringIcSt11char_traitsIcESaIcEEC1IS3_EEPKcRKS3_
FN:644,653,_ZNSt7__cxx1112basic_stringIcSt11char_traitsIcESaIcEEC2IS3_EEPKcRKS3_
FN:680,700,_ZNSt7__cxx1112basic_stringIcSt11char_traitsIcESaIcEEC2EOS4_
FN:854,914,_ZNSt7__cxx1112basic_stringIcSt11char_traitsIcESaIcEEaSEOS4_
FNDA:0,_ZNSt7__cxx1112basic_stringIcSt11char_traitsIcESaIcEE6appendEPKcm
FNDA:0,_ZNSt7__cxx1112basic_stringIcSt11char_traitsIcESaIcEE6appendEPKc
FNDA:0,_ZNSt7__cxx1112basic_stringIcSt11char_traitsIcESaIcEE7replaceEmmPKcm
FNDA:174,_ZNSt7__cxx1112basic_stringIcSt11char_traitsIcESaIcEE10_M_disposeEv
FNDA:0,_ZNKSt7__cxx1112basic_stringIcSt11char_traitsIcESaIcEE6substrEmm
FNDA:5,_ZNKSt7__cxx1112basic_stringIcSt11char_traitsIcESaIcEE7compareERKS4_
FNDA:2,_ZNKSt7__cxx1112basic_stringIcSt11char_traitsIcESaIcEE7compareEPKc
FNDA:0,_ZNKSt7__cxx1112basic_stringIcSt11char_traitsIcESaIcEE7compareEmmPKc
FNDA:11,_ZSteqIcSt11char_traitsIcESaIcEEbRKNSt7__cxx1112basic_stringIT_T0_T1_EEPKS5_
FNDA:0,_ZNSt7__cxx1112basic_stringIcSt11char_traitsIcESaIcEEC2ERKS4_mm
FNDA:40,_ZNSt7__cxx1112basic_stringIcSt11char_traitsIcESaIcEEC1IS3_EEPKcRKS3_
FNDA:11,_ZNSt7__cxx1112basic_stringIcSt11char_traitsIcESaIcEEC2IS3_EEPKcRKS3_
FNDA:11,_ZNSt7__cxx1112basic_stringIcSt11char_traitsIcESaIcEEC2EOS4_
FNDA:0,_ZNSt7__cxx1112basic_stringIcSt11char_traitsIcESaIcEEaSEOS4_
FNF:14
FNH:7
DA:194,169
DA:201,51
DA:202,51
DA:205,123
DA:206,123
DA:225,11
DA:226,0
DA:230,174
DA:231,174
DA:235,641
DA:236,163
DA:240,174
DA:243,104
DA:251,185
DA:254,185
DA:262,0
DA:263,0
DA:267,174
DA:269,174
DA:270,174
DA:271,0
DA:275,185
DA:277,81
DA:279,185
DA:280,0
DA:293,174
DA:295,174
DA:296,0
DA:297,174
DA:301,0
DA:302,0
DA:349,11
DA:350,0
DA:354,112
DA:355,0
DA:361,0
DA:389,0
DA:391,0
DA:392,0
DA:400,0
DA:402,0
DA:403,0
DA:410,0
DA:412,0
DA:413,0
DA:418,0
DA:420,0
DA:421,0
DA:428,163
DA:430,163
DA:431,0
DA:433,163
DA:438,0
DA:440,0
DA:441,0
DA:443,0
DA:480,112
DA:481,112
DA:485,51
DA:487,51
DA:491,7
DA:493,7
DA:495,7
DA:497,7
DA:500,7
DA:525,0
DA:527,0
DA:529,0
DA:530,0
DA:531,0
DA:550,112
DA:551,112
DA:552,112
DA:554,112
DA:556,0
DA:584,0
DA:586,0
DA:588,0
DA:589,0
DA:590,0
DA:592,0
DA:644,51
DA:645,51
DA:648,51
DA:649,0
DA:651,51
DA:652,51
DA:653,51
DA:680,11
DA:681,11
DA:683,11
DA:685,11
DA:686,11
DA:690,0
DA:691,0
DA:697,11
DA:698,11
DA:699,11
DA:700,11
DA:804,98
DA:805,140
DA:854,0
DA:857,0
DA:859,0
DA:868,0
DA:870,0
DA:875,0
DA:877,0
DA:878,0
DA:879,0
DA:885,0
DA:887,0
DA:892,0
DA:893,0
DA:899,0
DA:900,0
DA:901,0
DA:902,0
DA:904,0
DA:905,0
DA:908,0
DA:912,0
DA:913,0
DA:1072,18
DA:1073,18
DA:1079,123
DA:1080,123
DA:1170,0
DA:1172,0
DA:1212,0
DA:1213,0
DA:1221,0
DA:1222,0
DA:1237,0
DA:1239,0
DA:1240,0
DA:1255,0
DA:1259,0
DA:1262,0
DA:1367,0
DA:1368,0
DA:1377,0
DA:1378,0
DA:1425,0
DA:1426,0
DA:1456,0
DA:1459,0
DA:1460,0
DA:1470,0
DA:1473,0
DA:1474,0
DA:1475,0
DA:2205,0
DA:2209,0
DA:2210,0
DA:2596,0
DA:2597,0
DA:2609,16
DA:2610,16
DA:3164,0
DA:3166,0
DA:3184,5
DA:3186,5
DA:3187,5
DA:3188,5
DA:3190,5
DA:3191,5
DA:3192,5
DA:3193,5
DA:3349,2
DA:3352,2
DA:3353,2
DA:3354,2
DA:3355,2
DA:3356,2
DA:3357,2
DA:3358,2
DA:3384,0
DA:3387,0
DA:3388,0
DA:3389,0
DA:3390,0
DA:3391,0
DA:3392,0
DA:3393,0
DA:3394,0
DA:3689,0
DA:3691,0
DA:3728,11
DA:3731,11
DA:3732,11
DA:4033,0
DA:4038,0
LF:193
LH:83
end_of_record
TN:
SF:/usr/include/c++/13.1.1/bits/basic_string.tcc
FN:134,156,_ZNSt7__cxx1112basic_stringIcSt11char_traitsIcESaIcEE9_M_createERmm
FN:217,248,_ZNSt7__cxx1112basic_stringIcSt11char_traitsIcESaIcEE12_M_constructIPKcEEvT_S8_St20forward_iterator_tag
FN:217,248,_ZNSt7__cxx1112basic_stringIcSt11char_traitsIcESaIcEE12_M_constructIPcEEvT_S7_St20forward_iterator_tag
FN:273,295,_ZNSt7__cxx1112basic_stringIcSt11char_traitsIcESaIcEE9_M_assignERKS4_
FN:321,341,_ZNSt7__cxx1112basic_stringIcSt11char_traitsIcESaIcEE9_M_mutateEmmPKcm
FN:409,424,_ZNSt7__cxx1112basic_stringIcSt11char_traitsIcESaIcEE9_M_appendEPKcm
FN:507,549,_ZNSt7__cxx1112basic_stringIcSt11char_traitsIcESaIcEE10_M_replaceEmmPKcm
FNDA:0,_ZNSt7__cxx1112basic_stringIcSt11char_traitsIcESaIcEE9_M_createERmm
FNDA:51,_ZNSt7__cxx1112basic_stringIcSt11char_traitsIcESaIcEE12_M_constructIPKcEEvT_S8_St20forward_iterator_tag
FNDA:112,_ZNSt7__cxx1112basic_stringIcSt11char_traitsIcESaIcEE12_M_constructIPcEEvT_S7_St20forward_iterator_tag
FNDA:0,_ZNSt7__cxx1112basic_stringIcSt11char_traitsIcESaIcEE9_M_assignERKS4_
FNDA:0,_ZNSt7__cxx1112basic_stringIcSt11char_traitsIcESaIcEE9_M_mutateEmmPKcm
FNDA:0,_ZNSt7__cxx1112basic_stringIcSt11char_traitsIcESaIcEE9_M_appendEPKcm
FNDA:0,_ZNSt7__cxx1112basic_stringIcSt11char_traitsIcESaIcEE10_M_replaceEmmPKcm
FNF:7
FNH:2
DA:134,0
DA:139,0
DA:140,0
DA:145,0
DA:147,0
DA:149,0
DA:150,0
DA:155,0
DA:217,163
DA:221,163
DA:223,163
DA:225,0
DA:235,163
DA:238,163
DA:241,163
DA:243,163
DA:245,163
DA:247,163
DA:248,163
DA:273,0
DA:276,0
DA:278,0
DA:279,0
DA:281,0
DA:283,0
DA:284,0
DA:285,0
DA:286,0
DA:287,0
DA:290,0
DA:291,0
DA:293,0
DA:295,0
DA:321,0
DA:325,0
DA:327,0
DA:328,0
DA:330,0
DA:331,0
DA:332,0
DA:333,0
DA:334,0
DA:335,0
DA:336,0
DA:338,0
DA:339,0
DA:340,0
DA:341,0
DA:409,0
DA:412,0
DA:414,0
DA:416,0
DA:417,0
DA:420,0
DA:422,0
DA:423,0
DA:507,0
DA:511,0
DA:513,0
DA:514,0
DA:516,0
DA:518,0
DA:520,0
DA:534,0
DA:536,0
DA:537,0
DA:538,0
DA:539,0
DA:542,0
DA:545,0
DA:547,0
DA:548,0
LF:72
LH:10
end_of_record
TN:
SF:/usr/include/c++/13.1.1/bits/char_traits.h
FNF:0
FNH:0
DA:361,174
DA:364,174
DA:368,0
DA:369,0
DA:384,18
DA:386,18
DA:389,18
DA:399,18
DA:403,64
DA:406,64
DA:409,64
DA:425,0
DA:427,0
DA:430,0
DA:433,0
DA:437,174
DA:439,163
DA:442,174
DA:445,174
DA:480,0
DA:481,0
LF:21
LH:13
end_of_record
TN:
SF:/usr/include/c++/13.1.1/bits/hashtable.h
FN:1580,1595,_ZNSt10_HashtableIyySaIyENSt8__detail9_IdentityESt8equal_toIyESt4hashIyENS1_18_Mod_range_hashingENS1_20_Default_ranged_hashENS1_20_Prime_rehash_policyENS1_17_Hashtable_traitsILb0ELb1ELb1EEEED2Ev
FN:1649,1665,_ZNSt10_HashtableIyySaIyENSt8__detail9_IdentityESt8equal_toIyESt4hashIyENS1_18_Mod_range_hashingENS1_20_Default_ranged_hashENS1_20_Prime_rehash_policyENS1_17_Hashtable_traitsILb0ELb1ELb1EEEE4findERKy
FN:1992,2018,_ZNSt10_HashtableIyySaIyENSt8__detail9_IdentityESt8equal_toIyESt4hashIyENS1_18_Mod_range_hashingENS1_20_Default_ranged_hashENS1_20_Prime_rehash_policyENS1_17_Hashtable_traitsILb0ELb1ELb1EEEE22_M_insert_bucket_beginEmPNS1_10_Hash_nodeIyLb0EEE
FN:2151,2174,_ZNSt10_HashtableIyySaIyENSt8__detail9_IdentityESt8equal_toIyESt4hashIyENS1_18_Mod_range_hashingENS1_20_Default_ranged_hashENS1_20_Prime_rehash_policyENS1_17_Hashtable_traitsILb0ELb1ELb1EEEE21_M_insert_unique_nodeEmmPNS1_10_Hash_nodeIyLb0EEEm
FN:2238,2266,_ZNSt10_HashtableIyySaIyENSt8__detail9_IdentityESt8equal_toIyESt4hashIyENS1_18_Mod_range_hashingENS1_20_Default_ranged_hashENS1_20_Prime_rehash_policyENS1_17_Hashtable_traitsILb0ELb1ELb1EEEE16_M_insert_uniqueIyyNS1_10_AllocNodeISaINS1_10_Hash_nodeIyLb0EEEEEEEESt4pairINS1_14_Node_iteratorIyLb1ELb0EEEbEOT_OT0_RKT1_
FN:2505,2514,_ZNSt10_HashtableIyySaIyENSt8__detail9_IdentityESt8equal_toIyESt4hashIyENS1_18_Mod_range_hashingENS1_20_Default_ranged_hashENS1_20_Prime_rehash_policyENS1_17_Hashtable_traitsILb0ELb1ELb1EEEE5clearEv
FN:2544,2559,_ZNSt10_HashtableIyySaIyENSt8__detail9_IdentityESt8equal_toIyESt4hashIyENS1_18_Mod_range_hashingENS1_20_Default_ranged_hashENS1_20_Prime_rehash_policyENS1_17_Hashtable_traitsILb0ELb1ELb1EEEE9_M_rehashEmRKm
FN:2567,2601,_ZNSt10_HashtableIyySaIyENSt8__detail9_IdentityESt8equal_toIyESt4hashIyENS1_18_Mod_range_hashingENS1_20_Default_ranged_hashENS1_20_Prime_rehash_policyENS1_17_Hashtable_traitsILb0ELb1ELb1EEEE13_M_rehash_auxEmSt17integral_constantIbLb1EE
FN:812,819,_ZNKSt10_HashtableIyySaIyENSt8__detail9_IdentityESt8equal_toIyESt4hashIyENS1_18_Mod_range_hashingENS1_20_Default_ranged_hashENS1_20_Prime_rehash_policyENS1_17_Hashtable_traitsILb0ELb1ELb1EEEE12_M_find_nodeEmRKym
FN:823,830,_ZNKSt10_HashtableIyySaIyENSt8__detail9_IdentityESt8equal_toIyESt4hashIyENS1_18_Mod_range_hashingENS1_20_Default_ranged_hashENS1_20_Prime_rehash_policyENS1_17_Hashtable_traitsILb0ELb1ELb1EEEE15_M_find_node_trIyEEPNS1_10_Hash_nodeIyLb0EEEmRKT_m
FNDA:1,_ZNSt10_HashtableIyySaIyENSt8__detail9_IdentityESt8equal_toIyESt4hashIyENS1_18_Mod_range_hashingENS1_20_Default_ranged_hashENS1_20_Prime_rehash_policyENS1_17_Hashtable_traitsILb0ELb1ELb1EEEED2Ev
FNDA:0,_ZNSt10_HashtableIyySaIyENSt8__detail9_IdentityESt8equal_toIyESt4hashIyENS1_18_Mod_range_hashingENS1_20_Default_ranged_hashENS1_20_Prime_rehash_policyENS1_17_Hashtable_traitsILb0ELb1ELb1EEEE4findERKy
FNDA:0,_ZNSt10_HashtableIyySaIyENSt8__detail9_IdentityESt8equal_toIyESt4hashIyENS1_18_Mod_range_hashingENS1_20_Default_ranged_hashENS1_20_Prime_rehash_policyENS1_17_Hashtable_traitsILb0ELb1ELb1EEEE22_M_insert_bucket_beginEmPNS1_10_Hash_nodeIyLb0EEE
FNDA:0,_ZNSt10_HashtableIyySaIyENSt8__detail9_IdentityESt8equal_toIyESt4hashIyENS1_18_Mod_range_hashingENS1_20_Default_ranged_hashENS1_20_Prime_rehash_policyENS1_17_Hashtable_traitsILb0ELb1ELb1EEEE21_M_insert_unique_nodeEmmPNS1_10_Hash_nodeIyLb0EEEm
FNDA:0,_ZNSt10_HashtableIyySaIyENSt8__detail9_IdentityESt8equal_toIyESt4hashIyENS1_18_Mod_range_hashingENS1_20_Default_ranged_hashENS1_20_Prime_rehash_policyENS1_17_Hashtable_traitsILb0ELb1ELb1EEEE16_M_insert_uniqueIyyNS1_10_AllocNodeISaINS1_10_Hash_nodeIyLb0EEEEEEEESt4pairINS1_14_Node_iteratorIyLb1ELb0EEEbEOT_OT0_RKT1_
FNDA:11,_ZNSt10_HashtableIyySaIyENSt8__detail9_IdentityESt8equal_toIyESt4hashIyENS1_18_Mod_range_hashingENS1_20_Default_ranged_hashENS1_20_Prime_rehash_policyENS1_17_Hashtable_traitsILb0ELb1ELb1EEEE5clearEv
FNDA:0,_ZNSt10_HashtableIyySaIyENSt8__detail9_IdentityESt8equal_toIyESt4hashIyENS1_18_Mod_range_hashingENS1_20_Default_ranged_hashENS1_20_Prime_rehash_policyENS1_17_Hashtable_traitsILb0ELb1ELb1EEEE9_M_rehashEmRKm
FNDA:0,_ZNSt10_HashtableIyySaIyENSt8__detail9_IdentityESt8equal_toIyESt4hashIyENS1_18_Mod_range_hashingENS1_20_Default_ranged_hashENS1_20_Prime_rehash_policyENS1_17_Hashtable_traitsILb0ELb1ELb1EEEE13_M_rehash_auxEmSt17integral_constantIbLb1EE
FNDA:0,_ZNKSt10_HashtableIyySaIyENSt8__detail9_IdentityESt8equal_toIyESt4hashIyENS1_18_Mod_range_hashingENS1_20_Default_ranged_hashENS1_20_Prime_rehash_policyENS1_17_Hashtable_traitsILb0ELb1ELb1EEEE12_M_find_nodeEmRKym
FNDA:0,_ZNKSt10_HashtableIyySaIyENSt8__detail9_IdentityESt8equal_toIyESt4hashIyENS1_18_Mod_range_hashingENS1_20_Default_ranged_hashENS1_20_Prime_rehash_policyENS1_17_Hashtable_traitsILb0ELb1ELb1EEEE15_M_find_node_trIyEEPNS1_10_Hash_nodeIyLb0EEEmRKT_m
FNF:10
FNH:2
DA:300,0
DA:301,0
DA:311,0
DA:416,1
DA:417,1
DA:434,0
DA:436,0
DA:438,0
DA:439,0
DA:442,0
DA:446,1
DA:448,1
DA:451,0
DA:455,1
DA:456,0
DA:464,11
DA:465,11
DA:623,0
DA:624,0
DA:631,0
DA:632,0
DA:647,0
DA:648,0
DA:792,0
DA:793,0
DA:796,0
DA:797,0
DA:812,0
DA:815,0
DA:816,0
DA:817,0
DA:823,0
DA:826,0
DA:827,0
DA:828,0
DA:902,0
DA:904,0
DA:911,0
DA:916,0
DA:1580,1
DA:1593,1
DA:1594,1
DA:1595,1
DA:1649,0
DA:1654,0
DA:1656,0
DA:1657,0
DA:1658,0
DA:1659,0
DA:1662,0
DA:1663,0
DA:1664,0
DA:1933,0
DA:1939,0
DA:1940,0
DA:1943,0
DA:1946,0
DA:1949,0
DA:1963,0
DA:1969,0
DA:1970,0
DA:1973,0
DA:1976,0
DA:1979,0
DA:1992,0
DA:1996,0
DA:2000,0
DA:2001,0
DA:2008,0
DA:2009,0
DA:2011,0
DA:2014,0
DA:2016,0
DA:2018,0
DA:2151,0
DA:2157,0
DA:2159,0
DA:2162,0
DA:2164,0
DA:2165,0
DA:2171,0
DA:2172,0
DA:2173,0
DA:2238,0
DA:2244,0
DA:2245,0
DA:2246,0
DA:2247,0
DA:2249,0
DA:2250,0
DA:2252,0
DA:2253,0
DA:2254,0
DA:2256,0
DA:2263,0
DA:2264,0
DA:2265,0
DA:2266,0
DA:2505,11
DA:2509,11
DA:2510,11
DA:2511,11
DA:2512,11
DA:2513,11
DA:2514,11
DA:2544,0
DA:2550,0
DA:2552,0
DA:2556,0
DA:2557,0
DA:2559,0
DA:2567,0
DA:2571,0
DA:2572,0
DA:2573,0
DA:2574,0
DA:2575,0
DA:2577,0
DA:2579,0
DA:2580,0
DA:2582,0
DA:2583,0
DA:2584,0
DA:2585,0
DA:2586,0
DA:2591,0
DA:2592,0
DA:2598,0
DA:2599,0
DA:2600,0
DA:2601,0
LF:131
LH:18
end_of_record
TN:
SF:/usr/include/c++/13.1.1/bits/hashtable_policy.h
FN:1996,2014,_ZNSt8__detail16_Hashtable_allocISaINS_10_Hash_nodeIyLb0EEEEE16_M_allocate_nodeIJyEEEPS2_DpOT_
FN:2048,2057,_ZNSt8__detail16_Hashtable_allocISaINS_10_Hash_nodeIyLb0EEEEE19_M_allocate_bucketsEm
FNDA:0,_ZNSt8__detail16_Hashtable_allocISaINS_10_Hash_nodeIyLb0EEEEE16_M_allocate_nodeIJyEEEPS2_DpOT_
FNDA:0,_ZNSt8__detail16_Hashtable_allocISaINS_10_Hash_nodeIyLb0EEEEE19_M_allocate_bucketsEm
FNF:2
FNH:0
DA:171,0
DA:173,0
DA:242,0
DA:243,0
DA:247,0
DA:248,0
DA:313,0
DA:331,0
DA:332,0
DA:336,0
DA:371,0
DA:376,0
DA:377,0
DA:389,0
DA:393,0
DA:394,0
DA:397,0
DA:432,0
DA:433,0
DA:444,0
DA:446,0
DA:447,0
DA:522,0
DA:524,0
DA:567,0
DA:568,0
DA:575,0
DA:576,0
DA:1067,0
DA:1069,0
DA:1070,0
DA:1071,0
DA:1211,1
DA:1302,0
DA:1306,0
DA:1311,0
DA:1315,0
DA:1340,0
DA:1341,0
DA:1344,0
DA:1350,0
DA:1717,0
DA:1724,0
DA:1729,0
DA:1737,0
DA:1741,0
DA:1743,0
DA:1747,0
DA:1750,0
DA:1921,1
DA:1996,0
DA:1999,0
DA:2000,0
DA:2003,0
DA:2004,0
DA:2007,0
DA:2018,0
DA:2020,0
DA:2021,0
DA:2022,0
DA:2026,0
DA:2029,0
DA:2030,0
DA:2031,0
DA:2036,11
DA:2038,11
DA:2040,0
DA:2041,0
DA:2042,0
DA:2048,0
DA:2051,0
DA:2053,0
DA:2054,0
DA:2055,0
DA:2056,0
DA:2061,0
DA:2066,0
DA:2067,0
DA:2068,0
DA:2069,0
LF:80
LH:4
end_of_record
TN:
SF:/usr/include/c++/13.1.1/bits/ios_base.h
FN:1001,1005,_ZSt9uppercaseRSt8ios_base
FN:1059,1063,_ZSt3decRSt8ios_base
FN:1067,1071,_ZSt3hexRSt8ios_base
FN:1084,1088,_ZSt5fixedRSt8ios_base
FNDA:0,_ZSt9uppercaseRSt8ios_base
FNDA:1,_ZSt3decRSt8ios_base
FNDA:0,_ZSt3hexRSt8ios_base
FNDA:0,_ZSt5fixedRSt8ios_base
FNF:4
FNH:1
DA:83,1
DA:84,1
DA:87,1
DA:88,1
DA:99,1
DA:100,1
DA:103,1
DA:104,1
DA:166,0
DA:167,0
DA:662,0
DA:663,0
DA:673,0
DA:675,0
DA:676,0
DA:677,0
DA:689,0
DA:691,0
DA:692,0
DA:693,0
DA:706,1
DA:708,1
DA:709,1
DA:710,1
DA:711,1
DA:741,0
DA:743,0
DA:744,0
DA:745,0
DA:764,6
DA:766,6
DA:767,6
DA:768,6
DA:1001,0
DA:1003,0
DA:1004,0
DA:1059,1
DA:1061,1
DA:1062,1
DA:1067,0
DA:1069,0
DA:1070,0
DA:1084,0
DA:1086,0
DA:1087,0
LF:45
LH:20
end_of_record
TN:
SF:/usr/include/c++/13.1.1/bits/locale_facets.h
FN:1092,1093,_ZNKSt5ctypeIcE8do_widenEc
FN:880,886,_ZNKSt5ctypeIcE5widenEc
FNDA:0,_ZNKSt5ctypeIcE8do_widenEc
FNDA:1,_ZNKSt5ctypeIcE5widenEc
FNF:2
FNH:1
DA:880,1
DA:882,1
DA:883,1
DA:884,0
DA:885,0
DA:1092,0
DA:1093,0
LF:7
LH:3
end_of_record
TN:
SF:/usr/include/c++/13.1.1/bits/move.h
FNF:0
FNH:0
DA:189,0
DA:197,0
DA:198,0
DA:199,0
LF:4
LH:0
end_of_record
TN:
SF:/usr/include/c++/13.1.1/bits/new_allocator.h
FN:122,148,_ZNSt15__new_allocatorIN7doctest12_GLOBAL__N_113JUnitReporter17JUnitTestCaseData13JUnitTestCaseEE8allocateEmPKv
FN:122,148,_ZNSt15__new_allocatorIN7doctest12_GLOBAL__N_113JUnitReporter17JUnitTestCaseData16JUnitTestMessageEE8allocateEmPKv
FN:122,148,_ZNSt15__new_allocatorIN7doctest16SubcaseSignatureEE8allocateEmPKv
FN:122,148,_ZNSt15__new_allocatorIN7doctest6StringEE8allocateEmPKv
FN:122,148,_ZNSt15__new_allocatorINSt7__cxx1112basic_stringIcSt11char_traitsIcESaIcEEEE8allocateEmPKv
FN:122,148,_ZNSt15__new_allocatorINSt8__detail10_Hash_nodeIyLb0EEEE8allocateEmPKv
FN:122,148,_ZNSt15__new_allocatorIPKN7doctest12TestCaseDataEE8allocateEmPKv
FN:122,148,_ZNSt15__new_allocatorIPKN7doctest6detail20IExceptionTranslatorEE8allocateEmPKv
FN:122,148,_ZNSt15__new_allocatorIPKN7doctest6detail8TestCaseEE8allocateEmPKv
FN:122,148,_ZNSt15__new_allocatorIPN7doctest13IContextScopeEE8allocateEmPKv
FN:122,148,_ZNSt15__new_allocatorIPN7doctest9IReporterEE8allocateEmPKv
FN:122,148,_ZNSt15__new_allocatorIPNSt8__detail15_Hash_node_baseEE8allocateEmPKv
FN:122,148,_ZNSt15__new_allocatorISt13_Rb_tree_nodeIN7doctest6StringEEE8allocateEmPKv
FN:122,148,_ZNSt15__new_allocatorISt13_Rb_tree_nodeIN7doctest6detail8TestCaseEEE8allocateEmPKv
FN:122,148,_ZNSt15__new_allocatorISt13_Rb_tree_nodeISt4pairIKS1_IiN7doctest6StringEEPFPNS2_9IReporterERKNS2_14ContextOptionsEEEEE8allocateEmPKv
FN:122,148,_ZNSt15__new_allocatorISt4fposI11__mbstate_tEE8allocateEmPKv
FN:122,148,_ZNSt15__new_allocatorISt6vectorIN7doctest6StringESaIS2_EEE8allocateEmPKv
FN:122,148,_ZNSt15__new_allocatorIcE8allocateEmPKv
FN:122,148,_ZNSt15__new_allocatorIdE8allocateEmPKv
FN:152,169,_ZNSt15__new_allocatorIN7doctest12_GLOBAL__N_113JUnitReporter17JUnitTestCaseData13JUnitTestCaseEE10deallocateEPS4_m
FN:152,169,_ZNSt15__new_allocatorIN7doctest12_GLOBAL__N_113JUnitReporter17JUnitTestCaseData16JUnitTestMessageEE10deallocateEPS4_m
FN:152,169,_ZNSt15__new_allocatorIN7doctest16SubcaseSignatureEE10deallocateEPS1_m
FN:152,169,_ZNSt15__new_allocatorIN7doctest6StringEE10deallocateEPS1_m
FN:152,169,_ZNSt15__new_allocatorINSt7__cxx1112basic_stringIcSt11char_traitsIcESaIcEEEE10deallocateEPS5_m
FN:152,169,_ZNSt15__new_allocatorINSt8__detail10_Hash_nodeIyLb0EEEE10deallocateEPS2_m
FN:152,169,_ZNSt15__new_allocatorIPKN7doctest12TestCaseDataEE10deallocateEPS3_m
FN:152,169,_ZNSt15__new_allocatorIPKN7doctest6detail20IExceptionTranslatorEE10deallocateEPS4_m
FN:152,169,_ZNSt15__new_allocatorIPKN7doctest6detail8TestCaseEE10deallocateEPS4_m
FN:152,169,_ZNSt15__new_allocatorIPN7doctest13IContextScopeEE10deallocateEPS2_m
FN:152,169,_ZNSt15__new_allocatorIPN7doctest9IReporterEE10deallocateEPS2_m
FN:152,169,_ZNSt15__new_allocatorIPNSt8__detail15_Hash_node_baseEE10deallocateEPS2_m
FN:152,169,_ZNSt15__new_allocatorISt13_Rb_tree_nodeIN7doctest6StringEEE10deallocateEPS3_m
FN:152,169,_ZNSt15__new_allocatorISt13_Rb_tree_nodeIN7doctest6detail8TestCaseEEE10deallocateEPS4_m
FN:152,169,_ZNSt15__new_allocatorISt13_Rb_tree_nodeISt4pairIKS1_IiN7doctest6StringEEPFPNS2_9IReporterERKNS2_14ContextOptionsEEEEE10deallocateEPSE_m
FN:152,169,_ZNSt15__new_allocatorISt4fposI11__mbstate_tEE10deallocateEPS2_m
FN:152,169,_ZNSt15__new_allocatorISt6vectorIN7doctest6StringESaIS2_EEE10deallocateEPS4_m
FN:152,169,_ZNSt15__new_allocatorIcE10deallocateEPcm
FN:152,169,_ZNSt15__new_allocatorIdE10deallocateEPdm
FNDA:0,_ZNSt15__new_allocatorIN7doctest12_GLOBAL__N_113JUnitReporter17JUnitTestCaseData13JUnitTestCaseEE8allocateEmPKv
FNDA:0,_ZNSt15__new_allocatorIN7doctest12_GLOBAL__N_113JUnitReporter17JUnitTestCaseData16JUnitTestMessageEE8allocateEmPKv
FNDA:0,_ZNSt15__new_allocatorIN7doctest16SubcaseSignatureEE8allocateEmPKv
FNDA:1,_ZNSt15__new_allocatorIN7doctest6StringEE8allocateEmPKv
FNDA:0,_ZNSt15__new_allocatorINSt7__cxx1112basic_stringIcSt11char_traitsIcESaIcEEEE8allocateEmPKv
FNDA:0,_ZNSt15__new_allocatorINSt8__detail10_Hash_nodeIyLb0EEEE8allocateEmPKv
FNDA:0,_ZNSt15__new_allocatorIPKN7doctest12TestCaseDataEE8allocateEmPKv
FNDA:0,_ZNSt15__new_allocatorIPKN7doctest6detail20IExceptionTranslatorEE8allocateEmPKv
FNDA:5,_ZNSt15__new_allocatorIPKN7doctest6detail8TestCaseEE8allocateEmPKv
FNDA:0,_ZNSt15__new_allocatorIPN7doctest13IContextScopeEE8allocateEmPKv
FNDA:1,_ZNSt15__new_allocatorIPN7doctest9IReporterEE8allocateEmPKv
FNDA:0,_ZNSt15__new_allocatorIPNSt8__detail15_Hash_node_baseEE8allocateEmPKv
FNDA:0,_ZNSt15__new_allocatorISt13_Rb_tree_nodeIN7doctest6StringEEE8allocateEmPKv
FNDA:10,_ZNSt15__new_allocatorISt13_Rb_tree_nodeIN7doctest6detail8TestCaseEEE8allocateEmPKv
FNDA:3,_ZNSt15__new_allocatorISt13_Rb_tree_nodeISt4pairIKS1_IiN7doctest6StringEEPFPNS2_9IReporterERKNS2_14ContextOptionsEEEEE8allocateEmPKv
FNDA:0,_ZNSt15__new_allocatorISt4fposI11__mbstate_tEE8allocateEmPKv
FNDA:1,_ZNSt15__new_allocatorISt6vectorIN7doctest6StringESaIS2_EEE8allocateEmPKv
FNDA:0,_ZNSt15__new_allocatorIcE8allocateEmPKv
FNDA:15,_ZNSt15__new_allocatorIdE8allocateEmPKv
FNDA:0,_ZNSt15__new_allocatorIN7doctest12_GLOBAL__N_113JUnitReporter17JUnitTestCaseData13JUnitTestCaseEE10deallocateEPS4_m
FNDA:0,_ZNSt15__new_allocatorIN7doctest12_GLOBAL__N_113JUnitReporter17JUnitTestCaseData16JUnitTestMessageEE10deallocateEPS4_m
FNDA:0,_ZNSt15__new_allocatorIN7doctest16SubcaseSignatureEE10deallocateEPS1_m
FNDA:1,_ZNSt15__new_allocatorIN7doctest6StringEE10deallocateEPS1_m
FNDA:0,_ZNSt15__new_allocatorINSt7__cxx1112basic_stringIcSt11char_traitsIcESaIcEEEE10deallocateEPS5_m
FNDA:0,_ZNSt15__new_allocatorINSt8__detail10_Hash_nodeIyLb0EEEE10deallocateEPS2_m
FNDA:0,_ZNSt15__new_allocatorIPKN7doctest12TestCaseDataEE10deallocateEPS3_m
FNDA:0,_ZNSt15__new_allocatorIPKN7doctest6detail20IExceptionTranslatorEE10deallocateEPS4_m
FNDA:5,_ZNSt15__new_allocatorIPKN7doctest6detail8TestCaseEE10deallocateEPS4_m
FNDA:0,_ZNSt15__new_allocatorIPN7doctest13IContextScopeEE10deallocateEPS2_m
FNDA:1,_ZNSt15__new_allocatorIPN7doctest9IReporterEE10deallocateEPS2_m
FNDA:0,_ZNSt15__new_allocatorIPNSt8__detail15_Hash_node_baseEE10deallocateEPS2_m
FNDA:0,_ZNSt15__new_allocatorISt13_Rb_tree_nodeIN7doctest6StringEEE10deallocateEPS3_m
FNDA:10,_ZNSt15__new_allocatorISt13_Rb_tree_nodeIN7doctest6detail8TestCaseEEE10deallocateEPS4_m
FNDA:3,_ZNSt15__new_allocatorISt13_Rb_tree_nodeISt4pairIKS1_IiN7doctest6StringEEPFPNS2_9IReporterERKNS2_14ContextOptionsEEEEE10deallocateEPSE_m
FNDA:0,_ZNSt15__new_allocatorISt4fposI11__mbstate_tEE10deallocateEPS2_m
FNDA:1,_ZNSt15__new_allocatorISt6vectorIN7doctest6StringESaIS2_EEE10deallocateEPS4_m
FNDA:0,_ZNSt15__new_allocatorIcE10deallocateEPcm
FNDA:15,_ZNSt15__new_allocatorIdE10deallocateEPdm
FNF:38
FNH:14
DA:88,67
DA:92,175
DA:122,36
DA:130,36
DA:134,0
DA:135,0
DA:136,0
DA:147,36
DA:152,36
DA:168,36
LF:10
LH:7
end_of_record
TN:
SF:/usr/include/c++/13.1.1/bits/postypes.h
FNF:0
FNH:0
DA:181,0
DA:182,0
LF:2
LH:0
end_of_record
TN:
SF:/usr/include/c++/13.1.1/bits/predefined_ops.h
FNF:0
FNH:0
DA:150,1
DA:157,9
DA:158,9
DA:164,1
DA:165,1
DA:187,0
DA:188,0
DA:195,0
DA:196,0
DA:231,9
DA:239,9
DA:240,9
DA:252,9
DA:253,9
DA:262,0
DA:269,0
DA:270,0
DA:276,0
DA:277,0
LF:19
LH:10
end_of_record
TN:
SF:/usr/include/c++/13.1.1/bits/range_access.h
FNF:0
FNH:0
DA:106,0
DA:107,0
LF:2
LH:0
end_of_record
TN:
SF:/usr/include/c++/13.1.1/bits/std_abs.h
FNF:0
FNH:0
DA:71,11
DA:72,11
LF:2
LH:2
end_of_record
TN:
SF:/usr/include/c++/13.1.1/bits/std_mutex.h
FN:111,118,_ZNSt5mutex4lockEv
FNDA:0,_ZNSt5mutex4lockEv
FNF:1
FNH:0
DA:67,1
DA:104,1
DA:111,0
DA:113,0
DA:116,0
DA:117,0
DA:118,0
DA:129,0
DA:132,0
DA:248,0
DA:249,0
DA:254,0
DA:255,0
LF:13
LH:2
end_of_record
TN:
SF:/usr/include/c++/13.1.1/bits/stl_algo.h
FN:1631,1639,_ZSt13__heap_selectIN9__gnu_cxx17__normal_iteratorIPPKN7doctest6detail8TestCaseESt6vectorIS6_SaIS6_EEEENS0_5__ops15_Iter_comp_iterIPFbS6_S6_EEEEvT_SH_SH_T0_
FN:1812,1830,_ZSt16__insertion_sortIN9__gnu_cxx17__normal_iteratorIPPKN7doctest6detail8TestCaseESt6vectorIS6_SaIS6_EEEENS0_5__ops15_Iter_comp_iterIPFbS6_S6_EEEEvT_SH_T0_
FN:1854,1865,_ZSt22__final_insertion_sortIN9__gnu_cxx17__normal_iteratorIPPKN7doctest6detail8TestCaseESt6vectorIS6_SaIS6_EEEENS0_5__ops15_Iter_comp_iterIPFbS6_S6_EEEEvT_SH_T0_
FN:1871,1887,_ZSt21__unguarded_partitionIN9__gnu_cxx17__normal_iteratorIPPKN7doctest6detail8TestCaseESt6vectorIS6_SaIS6_EEEENS0_5__ops15_Iter_comp_iterIPFbS6_S6_EEEET_SH_SH_SH_T0_
FN:1893,1900,_ZSt27__unguarded_partition_pivotIN9__gnu_cxx17__normal_iteratorIPPKN7doctest6detail8TestCaseESt6vectorIS6_SaIS6_EEEENS0_5__ops15_Iter_comp_iterIPFbS6_S6_EEEET_SH_SH_T0_
FN:1918,1935,_ZSt16__introsort_loopIN9__gnu_cxx17__normal_iteratorIPPKN7doctest6detail8TestCaseESt6vectorIS6_SaIS6_EEEElNS0_5__ops15_Iter_comp_iterIPFbS6_S6_EEEEvT_SH_T0_T1_
FN:1942,1952,_ZSt6__sortIN9__gnu_cxx17__normal_iteratorIPPKN7doctest6detail8TestCaseESt6vectorIS6_SaIS6_EEEENS0_5__ops15_Iter_comp_iterIPFbS6_S6_EEEEvT_SH_T0_
FN:3889,3899,_ZSt4findIN9__gnu_cxx17__normal_iteratorIPPKN7doctest6detail20IExceptionTranslatorESt6vectorIS6_SaIS6_EEEES6_ET_SC_SC_RKT0_
FN:85,103,_ZSt22__move_median_to_firstIN9__gnu_cxx17__normal_iteratorIPPKN7doctest6detail8TestCaseESt6vectorIS6_SaIS6_EEEENS0_5__ops15_Iter_comp_iterIPFbS6_S6_EEEEvT_SH_SH_SH_T0_
FNDA:0,_ZSt13__heap_selectIN9__gnu_cxx17__normal_iteratorIPPKN7doctest6detail8TestCaseESt6vectorIS6_SaIS6_EEEENS0_5__ops15_Iter_comp_iterIPFbS6_S6_EEEEvT_SH_SH_T0_
FNDA:1,_ZSt16__insertion_sortIN9__gnu_cxx17__normal_iteratorIPPKN7doctest6detail8TestCaseESt6vectorIS6_SaIS6_EEEENS0_5__ops15_Iter_comp_iterIPFbS6_S6_EEEEvT_SH_T0_
FNDA:1,_ZSt22__final_insertion_sortIN9__gnu_cxx17__normal_iteratorIPPKN7doctest6detail8TestCaseESt6vectorIS6_SaIS6_EEEENS0_5__ops15_Iter_comp_iterIPFbS6_S6_EEEEvT_SH_T0_
FNDA:0,_ZSt21__unguarded_partitionIN9__gnu_cxx17__normal_iteratorIPPKN7doctest6detail8TestCaseESt6vectorIS6_SaIS6_EEEENS0_5__ops15_Iter_comp_iterIPFbS6_S6_EEEET_SH_SH_SH_T0_
FNDA:0,_ZSt27__unguarded_partition_pivotIN9__gnu_cxx17__normal_iteratorIPPKN7doctest6detail8TestCaseESt6vectorIS6_SaIS6_EEEENS0_5__ops15_Iter_comp_iterIPFbS6_S6_EEEET_SH_SH_T0_
FNDA:1,_ZSt16__introsort_loopIN9__gnu_cxx17__normal_iteratorIPPKN7doctest6detail8TestCaseESt6vectorIS6_SaIS6_EEEElNS0_5__ops15_Iter_comp_iterIPFbS6_S6_EEEEvT_SH_T0_T1_
FNDA:1,_ZSt6__sortIN9__gnu_cxx17__normal_iteratorIPPKN7doctest6detail8TestCaseESt6vectorIS6_SaIS6_EEEENS0_5__ops15_Iter_comp_iterIPFbS6_S6_EEEEvT_SH_T0_
FNDA:0,_ZSt4findIN9__gnu_cxx17__normal_iteratorIPPKN7doctest6detail20IExceptionTranslatorESt6vectorIS6_SaIS6_EEEES6_ET_SC_SC_RKT0_
FNDA:0,_ZSt22__move_median_to_firstIN9__gnu_cxx17__normal_iteratorIPPKN7doctest6detail8TestCaseESt6vectorIS6_SaIS6_EEEENS0_5__ops15_Iter_comp_iterIPFbS6_S6_EEEEvT_SH_SH_SH_T0_
FNF:9
FNH:4
DA:85,0
DA:88,0
DA:90,0
DA:91,0
DA:92,0
DA:93,0
DA:95,0
DA:97,0
DA:98,0
DA:99,0
DA:100,0
DA:102,0
DA:103,0
DA:1631,0
DA:1635,0
DA:1636,0
DA:1637,0
DA:1638,0
DA:1639,0
DA:1792,9
DA:1796,9
DA:1797,9
DA:1798,9
DA:1799,9
DA:1801,0
DA:1802,0
DA:1803,0
DA:1805,9
DA:1812,1
DA:1815,1
DA:1817,10
DA:1819,9
DA:1822,0
DA:1823,0
DA:1824,0
DA:1827,18
DA:1836,0
DA:1839,0
DA:1840,0
DA:1854,1
DA:1857,1
DA:1859,0
DA:1860,0
DA:1864,1
DA:1865,1
DA:1871,0
DA:1875,0
DA:1877,0
DA:1878,0
DA:1879,0
DA:1880,0
DA:1881,0
DA:1882,0
DA:1883,0
DA:1884,0
DA:1885,0
DA:1893,0
DA:1896,0
DA:1897,0
DA:1899,0
DA:1905,0
DA:1910,0
DA:1911,0
DA:1918,1
DA:1922,1
DA:1924,0
DA:1926,0
DA:1927,0
DA:1929,0
DA:1931,0
DA:1932,0
DA:1933,0
DA:1942,1
DA:1945,1
DA:1947,1
DA:1948,2
DA:1950,1
DA:1952,1
DA:3889,0
DA:3897,0
DA:3898,0
DA:4882,1
DA:4894,1
DA:4895,1
LF:84
LH:26
end_of_record
TN:
SF:/usr/include/c++/13.1.1/bits/stl_algobase.h
FN:2064,2110,_ZSt9__find_ifIN9__gnu_cxx17__normal_iteratorIPPKN7doctest6detail20IExceptionTranslatorESt6vectorIS6_SaIS6_EEEENS0_5__ops16_Iter_equals_valIKS6_EEET_SG_SG_T0_St26random_access_iterator_tag
FN:383,393,_ZNSt11__copy_moveILb0ELb0ESt26random_access_iterator_tagE8__copy_mIPN7doctest16SubcaseSignatureES5_EET0_T_S7_S6_
FN:727,734,_ZNSt20__copy_move_backwardILb1ELb0ESt26random_access_iterator_tagE13__copy_move_bIPN7doctest16SubcaseSignatureES5_EET0_T_S7_S6_
FN:744,753,_ZNSt20__copy_move_backwardILb1ELb1ESt26random_access_iterator_tagE13__copy_move_bIPKN7doctest6detail8TestCaseES7_EEPT0_PT_SB_S9_
FN:744,753,_ZNSt20__copy_move_backwardILb1ELb1ESt26random_access_iterator_tagE13__copy_move_bIPN7doctest9IReporterES5_EEPT0_PT_S9_S7_
FNDA:0,_ZSt9__find_ifIN9__gnu_cxx17__normal_iteratorIPPKN7doctest6detail20IExceptionTranslatorESt6vectorIS6_SaIS6_EEEENS0_5__ops16_Iter_equals_valIKS6_EEET_SG_SG_T0_St26random_access_iterator_tag
FNDA:0,_ZNSt11__copy_moveILb0ELb0ESt26random_access_iterator_tagE8__copy_mIPN7doctest16SubcaseSignatureES5_EET0_T_S7_S6_
FNDA:0,_ZNSt20__copy_move_backwardILb1ELb0ESt26random_access_iterator_tagE13__copy_move_bIPN7doctest16SubcaseSignatureES5_EET0_T_S7_S6_
FNDA:0,_ZNSt20__copy_move_backwardILb1ELb1ESt26random_access_iterator_tagE13__copy_move_bIPKN7doctest6detail8TestCaseES7_EEPT0_PT_SB_S9_
FNDA:0,_ZNSt20__copy_move_backwardILb1ELb1ESt26random_access_iterator_tagE13__copy_move_bIPN7doctest9IReporterES5_EEPT0_PT_S9_S7_
FNF:5
FNH:0
DA:155,0
DA:185,0
DA:233,7
DA:238,7
DA:239,0
DA:257,35
DA:262,35
DA:263,10
DA:331,0
DA:332,0
DA:383,0
DA:386,0
DA:388,0
DA:389,0
DA:390,0
DA:392,0
DA:422,0
DA:423,0
DA:497,0
DA:506,0
DA:532,0
DA:533,0
DA:538,0
DA:540,0
DA:624,0
DA:633,0
DA:727,0
DA:730,0
DA:731,0
DA:732,0
DA:733,0
DA:744,0
DA:746,0
DA:747,0
DA:748,0
DA:749,0
DA:751,0
DA:752,0
DA:759,0
DA:769,0
DA:777,0
DA:778,0
DA:805,0
DA:807,0
DA:892,0
DA:901,0
DA:1515,1
DA:1518,2
DA:2064,0
DA:2068,0
DA:2070,0
DA:2072,0
DA:2073,0
DA:2074,0
DA:2076,0
DA:2077,0
DA:2078,0
DA:2080,0
DA:2081,0
DA:2082,0
DA:2084,0
DA:2085,0
DA:2086,0
DA:2089,0
DA:2091,0
DA:2092,0
DA:2093,0
DA:2094,0
DA:2096,0
DA:2097,0
DA:2098,0
DA:2099,0
DA:2101,0
DA:2102,0
DA:2103,0
DA:2106,0
DA:2108,0
DA:2115,0
DA:2117,0
LF:79
LH:7
end_of_record
TN:
SF:/usr/include/c++/13.1.1/bits/stl_construct.h
FN:160,164,_ZNSt12_Destroy_auxILb0EE9__destroyIPN7doctest16SubcaseSignatureEEEvT_S5_
FN:160,164,_ZNSt12_Destroy_auxILb0EE9__destroyIPN7doctest6StringEEEvT_S5_
FN:182,197,_ZSt8_DestroyIPN7doctest12_GLOBAL__N_113JUnitReporter17JUnitTestCaseData13JUnitTestCaseEEvT_S6_
FN:182,197,_ZSt8_DestroyIPN7doctest12_GLOBAL__N_113JUnitReporter17JUnitTestCaseData16JUnitTestMessageEEvT_S6_
FN:182,197,_ZSt8_DestroyIPN7doctest16SubcaseSignatureEEvT_S3_
FN:182,197,_ZSt8_DestroyIPN7doctest6StringEEvT_S3_
FN:182,197,_ZSt8_DestroyIPNSt7__cxx1112basic_stringIcSt11char_traitsIcESaIcEEEEvT_S7_
FN:182,197,_ZSt8_DestroyIPPKN7doctest12TestCaseDataEEvT_S5_
FN:182,197,_ZSt8_DestroyIPPKN7doctest6detail20IExceptionTranslatorEEvT_S6_
FN:182,197,_ZSt8_DestroyIPPKN7doctest6detail8TestCaseEEvT_S6_
FN:182,197,_ZSt8_DestroyIPPN7doctest13IContextScopeEEvT_S4_
FN:182,197,_ZSt8_DestroyIPPN7doctest9IReporterEEvT_S4_
FN:182,197,_ZSt8_DestroyIPSt4fposI11__mbstate_tEEvT_S4_
FN:182,197,_ZSt8_DestroyIPSt6vectorIN7doctest6StringESaIS2_EEEvT_S6_
FN:182,197,_ZSt8_DestroyIPdEvT_S1_
FN:80,89,_ZSt10destroy_atIN7doctest12_GLOBAL__N_113JUnitReporter17JUnitTestCaseData13JUnitTestCaseEEvPT_
FN:80,89,_ZSt10destroy_atIN7doctest12_GLOBAL__N_113JUnitReporter17JUnitTestCaseData16JUnitTestMessageEEvPT_
FN:80,89,_ZSt10destroy_atIN7doctest16SubcaseSignatureEEvPT_
FN:80,89,_ZSt10destroy_atINSt7__cxx1112basic_stringIcSt11char_traitsIcESaIcEEEEvPT_
FN:80,89,_ZSt10destroy_atIPN7doctest13IContextScopeEEvPT_
FN:80,89,_ZSt10destroy_atISt4fposI11__mbstate_tEEvPT_
FN:80,89,_ZSt10destroy_atISt4pairIKS0_IiN7doctest6StringEEPFPNS1_9IReporterERKNS1_14ContextOptionsEEEEvPT_
FN:94,97,_ZSt12construct_atIN7doctest12_GLOBAL__N_113JUnitReporter17JUnitTestCaseData13JUnitTestCaseEJRKNSt7__cxx1112basic_stringIcSt11char_traitsIcESaIcEEESC_EEDTgsnwcvPvLi0E_T_pispcl7declvalIT0_EEEEPSE_DpOSF_
FN:94,97,_ZSt12construct_atIN7doctest12_GLOBAL__N_113JUnitReporter17JUnitTestCaseData13JUnitTestCaseEJS4_EEDTgsnwcvPvLi0E_T_pispcl7declvalIT0_EEEEPS6_DpOS7_
FN:94,97,_ZSt12construct_atIN7doctest12_GLOBAL__N_113JUnitReporter17JUnitTestCaseData16JUnitTestMessageEJRKNSt7__cxx1112basic_stringIcSt11char_traitsIcESaIcEEESC_EEDTgsnwcvPvLi0E_T_pispcl7declvalIT0_EEEEPSE_DpOSF_
FN:94,97,_ZSt12construct_atIN7doctest12_GLOBAL__N_113JUnitReporter17JUnitTestCaseData16JUnitTestMessageEJRKNSt7__cxx1112basic_stringIcSt11char_traitsIcESaIcEEESC_SC_EEDTgsnwcvPvLi0E_T_pispcl7declvalIT0_EEEEPSE_DpOSF_
FN:94,97,_ZSt12construct_atIN7doctest12_GLOBAL__N_113JUnitReporter17JUnitTestCaseData16JUnitTestMessageEJS4_EEDTgsnwcvPvLi0E_T_pispcl7declvalIT0_EEEEPS6_DpOS7_
FN:94,97,_ZSt12construct_atIN7doctest16SubcaseSignatureEJS1_EEDTgsnwcvPvLi0E_T_pispcl7declvalIT0_EEEEPS3_DpOS4_
FN:94,97,_ZSt12construct_atIN7doctest6detail8TestCaseEJRKS2_EEDTgsnwcvPvLi0E_T_pispcl7declvalIT0_EEEEPS6_DpOS7_
FN:94,97,_ZSt12construct_atINSt7__cxx1112basic_stringIcSt11char_traitsIcESaIcEEEJS5_EEDTgsnwcvPvLi0E_T_pispcl7declvalIT0_EEEEPS7_DpOS8_
FN:94,97,_ZSt12construct_atISt4pairIKS0_IiN7doctest6StringEEPFPNS1_9IReporterERKNS1_14ContextOptionsEEEJSC_EEDTgsnwcvPvLi0E_T_pispcl7declvalIT0_EEEEPSE_DpOSF_
FN:94,97,_ZSt12construct_atIyJyEEDTgsnwcvPvLi0E_T_pispcl7declvalIT0_EEEEPS1_DpOS2_
FNDA:3,_ZNSt12_Destroy_auxILb0EE9__destroyIPN7doctest16SubcaseSignatureEEEvT_S5_
FNDA:10,_ZNSt12_Destroy_auxILb0EE9__destroyIPN7doctest6StringEEEvT_S5_
FNDA:0,_ZSt8_DestroyIPN7doctest12_GLOBAL__N_113JUnitReporter17JUnitTestCaseData13JUnitTestCaseEEvT_S6_
FNDA:0,_ZSt8_DestroyIPN7doctest12_GLOBAL__N_113JUnitReporter17JUnitTestCaseData16JUnitTestMessageEEvT_S6_
FNDA:3,_ZSt8_DestroyIPN7doctest16SubcaseSignatureEEvT_S3_
FNDA:10,_ZSt8_DestroyIPN7doctest6StringEEvT_S3_
FNDA:0,_ZSt8_DestroyIPNSt7__cxx1112basic_stringIcSt11char_traitsIcESaIcEEEEvT_S7_
FNDA:1,_ZSt8_DestroyIPPKN7doctest12TestCaseDataEEvT_S5_
FNDA:1,_ZSt8_DestroyIPPKN7doctest6detail20IExceptionTranslatorEEvT_S6_
FNDA:1,_ZSt8_DestroyIPPKN7doctest6detail8TestCaseEEvT_S6_
FNDA:0,_ZSt8_DestroyIPPN7doctest13IContextScopeEEvT_S4_
FNDA:2,_ZSt8_DestroyIPPN7doctest9IReporterEEvT_S4_
FNDA:0,_ZSt8_DestroyIPSt4fposI11__mbstate_tEEvT_S4_
FNDA:1,_ZSt8_DestroyIPSt6vectorIN7doctest6StringESaIS2_EEEvT_S6_
FNDA:2,_ZSt8_DestroyIPdEvT_S1_
FNDA:0,_ZSt10destroy_atIN7doctest12_GLOBAL__N_113JUnitReporter17JUnitTestCaseData13JUnitTestCaseEEvPT_
FNDA:0,_ZSt10destroy_atIN7doctest12_GLOBAL__N_113JUnitReporter17JUnitTestCaseData16JUnitTestMessageEEvPT_
FNDA:0,_ZSt10destroy_atIN7doctest16SubcaseSignatureEEvPT_
FNDA:0,_ZSt10destroy_atINSt7__cxx1112basic_stringIcSt11char_traitsIcESaIcEEEEvPT_
FNDA:0,_ZSt10destroy_atIPN7doctest13IContextScopeEEvPT_
FNDA:0,_ZSt10destroy_atISt4fposI11__mbstate_tEEvPT_
FNDA:3,_ZSt10destroy_atISt4pairIKS0_IiN7doctest6StringEEPFPNS1_9IReporterERKNS1_14ContextOptionsEEEEvPT_
FNDA:0,_ZSt12construct_atIN7doctest12_GLOBAL__N_113JUnitReporter17JUnitTestCaseData13JUnitTestCaseEJRKNSt7__cxx1112basic_stringIcSt11char_traitsIcESaIcEEESC_EEDTgsnwcvPvLi0E_T_pispcl7declvalIT0_EEEEPSE_DpOSF_
FNDA:0,_ZSt12construct_atIN7doctest12_GLOBAL__N_113JUnitReporter17JUnitTestCaseData13JUnitTestCaseEJS4_EEDTgsnwcvPvLi0E_T_pispcl7declvalIT0_EEEEPS6_DpOS7_
FNDA:0,_ZSt12construct_atIN7doctest12_GLOBAL__N_113JUnitReporter17JUnitTestCaseData16JUnitTestMessageEJRKNSt7__cxx1112basic_stringIcSt11char_traitsIcESaIcEEESC_EEDTgsnwcvPvLi0E_T_pispcl7declvalIT0_EEEEPSE_DpOSF_
FNDA:0,_ZSt12construct_atIN7doctest12_GLOBAL__N_113JUnitReporter17JUnitTestCaseData16JUnitTestMessageEJRKNSt7__cxx1112basic_stringIcSt11char_traitsIcESaIcEEESC_SC_EEDTgsnwcvPvLi0E_T_pispcl7declvalIT0_EEEEPSE_DpOSF_
FNDA:0,_ZSt12construct_atIN7doctest12_GLOBAL__N_113JUnitReporter17JUnitTestCaseData16JUnitTestMessageEJS4_EEDTgsnwcvPvLi0E_T_pispcl7declvalIT0_EEEEPS6_DpOS7_
FNDA:0,_ZSt12construct_atIN7doctest16SubcaseSignatureEJS1_EEDTgsnwcvPvLi0E_T_pispcl7declvalIT0_EEEEPS3_DpOS4_
FNDA:10,_ZSt12construct_atIN7doctest6detail8TestCaseEJRKS2_EEDTgsnwcvPvLi0E_T_pispcl7declvalIT0_EEEEPS6_DpOS7_
FNDA:0,_ZSt12construct_atINSt7__cxx1112basic_stringIcSt11char_traitsIcESaIcEEEJS5_EEDTgsnwcvPvLi0E_T_pispcl7declvalIT0_EEEEPS7_DpOS8_
FNDA:3,_ZSt12construct_atISt4pairIKS0_IiN7doctest6StringEEPFPNS1_9IReporterERKNS1_14ContextOptionsEEEJSC_EEDTgsnwcvPvLi0E_T_pispcl7declvalIT0_EEEEPSE_DpOSF_
FNDA:0,_ZSt12construct_atIyJyEEDTgsnwcvPvLi0E_T_pispcl7declvalIT0_EEEEPS1_DpOS2_
FNF:32
FNH:13
DA:80,3
DA:88,13
DA:89,3
DA:94,40
DA:97,40
DA:109,9
DA:119,9
DA:146,10
DA:149,10
DA:160,14
DA:162,24
DA:163,10
DA:164,13
DA:182,21
DA:196,14
LF:15
LH:15
end_of_record
TN:
SF:/usr/include/c++/13.1.1/bits/stl_function.h
FNF:0
FNH:0
DA:377,0
DA:378,0
DA:407,0
DA:408,50
DA:451,0
DA:457,0
DA:1178,5
DA:1179,5
DA:1182,5
DA:1183,5
LF:10
LH:5
end_of_record
TN:
SF:/usr/include/c++/13.1.1/bits/stl_heap.h
FN:135,147,_ZSt11__push_heapIN9__gnu_cxx17__normal_iteratorIPPKN7doctest6detail8TestCaseESt6vectorIS6_SaIS6_EEEElS6_NS0_5__ops14_Iter_comp_valIPFbS6_S6_EEEEvT_T0_SI_T1_RT2_
FN:224,249,_ZSt13__adjust_heapIN9__gnu_cxx17__normal_iteratorIPPKN7doctest6detail8TestCaseESt6vectorIS6_SaIS6_EEEElS6_NS0_5__ops15_Iter_comp_iterIPFbS6_S6_EEEEvT_T0_SI_T1_T2_
FN:340,362,_ZSt11__make_heapIN9__gnu_cxx17__normal_iteratorIPPKN7doctest6detail8TestCaseESt6vectorIS6_SaIS6_EEEENS0_5__ops15_Iter_comp_iterIPFbS6_S6_EEEEvT_SH_RT0_
FN:419,427,_ZSt11__sort_heapIN9__gnu_cxx17__normal_iteratorIPPKN7doctest6detail8TestCaseESt6vectorIS6_SaIS6_EEEENS0_5__ops15_Iter_comp_iterIPFbS6_S6_EEEEvT_SH_RT0_
FNDA:0,_ZSt11__push_heapIN9__gnu_cxx17__normal_iteratorIPPKN7doctest6detail8TestCaseESt6vectorIS6_SaIS6_EEEElS6_NS0_5__ops14_Iter_comp_valIPFbS6_S6_EEEEvT_T0_SI_T1_RT2_
FNDA:0,_ZSt13__adjust_heapIN9__gnu_cxx17__normal_iteratorIPPKN7doctest6detail8TestCaseESt6vectorIS6_SaIS6_EEEElS6_NS0_5__ops15_Iter_comp_iterIPFbS6_S6_EEEEvT_T0_SI_T1_T2_
FNDA:0,_ZSt11__make_heapIN9__gnu_cxx17__normal_iteratorIPPKN7doctest6detail8TestCaseESt6vectorIS6_SaIS6_EEEENS0_5__ops15_Iter_comp_iterIPFbS6_S6_EEEEvT_SH_RT0_
FNDA:0,_ZSt11__sort_heapIN9__gnu_cxx17__normal_iteratorIPPKN7doctest6detail8TestCaseESt6vectorIS6_SaIS6_EEEENS0_5__ops15_Iter_comp_iterIPFbS6_S6_EEEEvT_SH_RT0_
FNF:4
FNH:0
DA:135,0
DA:139,0
DA:140,0
DA:142,0
DA:143,0
DA:144,0
DA:146,0
DA:147,0
DA:224,0
DA:227,0
DA:228,0
DA:229,0
DA:231,0
DA:232,0
DA:234,0
DA:235,0
DA:236,0
DA:238,0
DA:240,0
DA:241,0
DA:243,0
DA:246,0
DA:247,0
DA:249,0
DA:254,0
DA:262,0
DA:263,0
DA:264,0
DA:265,0
DA:267,0
DA:340,0
DA:348,0
DA:351,0
DA:352,0
DA:353,0
DA:355,0
DA:356,0
DA:358,0
DA:359,0
DA:360,0
DA:419,0
DA:422,0
DA:424,0
DA:425,0
DA:427,0
LF:45
LH:0
end_of_record
TN:
SF:/usr/include/c++/13.1.1/bits/stl_iterator.h
FNF:0
FNH:0
DA:1076,46
DA:1077,167
DA:1083,0
DA:1094,0
DA:1099,0
DA:1109,113
DA:1111,15
DA:1112,113
DA:1117,0
DA:1118,0
DA:1123,9
DA:1125,9
DA:1126,9
DA:1142,0
DA:1143,0
DA:1147,0
DA:1148,1
DA:1157,0
DA:1158,0
DA:1162,0
DA:1163,0
DA:1197,0
DA:1203,0
DA:1208,0
DA:1211,0
DA:1334,25
DA:1337,25
DA:1519,0
DA:1563,0
DA:1574,0
DA:1576,0
DA:1748,0
DA:1750,0
DA:1815,0
DA:1816,0
DA:1832,0
DA:1833,0
LF:37
LH:11
end_of_record
TN:
SF:/usr/include/c++/13.1.1/bits/stl_iterator_base_funcs.h
FNF:0
FNH:0
DA:100,163
DA:106,163
DA:148,163
DA:151,163
DA:184,0
DA:190,0
DA:191,0
DA:192,0
DA:193,0
DA:195,0
DA:220,0
DA:223,0
DA:224,0
LF:13
LH:4
end_of_record
TN:
SF:/usr/include/c++/13.1.1/bits/stl_map.h
FN:314,314,_ZNSt3mapISt4pairIiN7doctest6StringEEPFPNS1_9IReporterERKNS1_14ContextOptionsEESt4lessIS3_ESaIS0_IKS3_SA_EEED2Ev
FNDA:2,_ZNSt3mapISt4pairIiN7doctest6StringEEPFPNS1_9IReporterERKNS1_14ContextOptionsEESt4lessIS3_ESaIS0_IKS3_SA_EEED2Ev
FNF:1
FNH:1
DA:197,2
DA:314,2
DA:368,2
DA:369,2
DA:377,0
DA:378,0
DA:386,2
DA:387,2
DA:395,0
DA:396,0
DA:482,0
DA:483,0
DA:842,3
DA:843,3
LF:14
LH:8
end_of_record
TN:
SF:/usr/include/c++/13.1.1/bits/stl_pair.h
FN:819,824,_ZStssIiN7doctest6StringEENSt26common_comparison_categoryIJDTclL_ZNSt8__detail11__synth3wayEEcl7declvalIRT_EEcl7declvalIS5_EEEEDTclL_ZNS3_11__synth3wayEEcl7declvalIRT0_EEcl7declvalIS8_EEEEEE4typeERKSt4pairIS4_S7_ESF_
FNDA:5,_ZStssIiN7doctest6StringEENSt26common_comparison_categoryIJDTclL_ZNSt8__detail11__synth3wayEEcl7declvalIRT_EEcl7declvalIS5_EEEEDTclL_ZNS3_11__synth3wayEEcl7declvalIRT0_EEcl7declvalIS8_EEEEEE4typeERKSt4pairIS4_S7_ESF_
FNF:1
FNH:1
DA:187,6
DA:197,6
DA:198,3
DA:305,0
DA:315,13
DA:317,16
DA:819,5
DA:821,5
DA:822,0
DA:823,5
LF:10
LH:8
end_of_record
TN:
SF:/usr/include/c++/13.1.1/bits/stl_set.h
FN:283,283,_ZNSt3setIN7doctest6detail8TestCaseESt4lessIS2_ESaIS2_EED2Ev
FNDA:1,_ZNSt3setIN7doctest6detail8TestCaseESt4lessIS2_ESaIS2_EED2Ev
FNF:1
FNH:1
DA:169,2
DA:283,2
DA:346,1
DA:347,1
DA:355,1
DA:356,1
DA:511,10
DA:514,10
DA:515,10
DA:520,0
DA:523,0
DA:524,0
DA:750,0
DA:751,0
LF:14
LH:9
end_of_record
TN:
SF:/usr/include/c++/13.1.1/bits/stl_tree.h
FN:1818,1837,_ZNSt8_Rb_treeIN7doctest6StringES1_St9_IdentityIS1_ESt4lessIS1_ESaIS1_EE10_M_insert_IS1_NS7_11_Alloc_nodeEEESt17_Rb_tree_iteratorIS1_EPSt18_Rb_tree_node_baseSD_OT_RT0_
FN:1818,1837,_ZNSt8_Rb_treeIN7doctest6detail8TestCaseES2_St9_IdentityIS2_ESt4lessIS2_ESaIS2_EE10_M_insert_IRKS2_NS8_11_Alloc_nodeEEESt17_Rb_tree_iteratorIS2_EPSt18_Rb_tree_node_baseSG_OT_RT0_
FN:1818,1837,_ZNSt8_Rb_treeISt4pairIiN7doctest6StringEES0_IKS3_PFPNS1_9IReporterERKNS1_14ContextOptionsEEESt10_Select1stISC_ESt4lessIS3_ESaISC_EE10_M_insert_ISC_NSI_11_Alloc_nodeEEESt17_Rb_tree_iteratorISC_EPSt18_Rb_tree_node_baseSO_OT_RT0_
FN:1930,1941,_ZNSt8_Rb_treeIN7doctest6StringES1_St9_IdentityIS1_ESt4lessIS1_ESaIS1_EE8_M_eraseEPSt13_Rb_tree_nodeIS1_E
FN:1930,1941,_ZNSt8_Rb_treeIN7doctest6detail8TestCaseES2_St9_IdentityIS2_ESt4lessIS2_ESaIS2_EE8_M_eraseEPSt13_Rb_tree_nodeIS2_E
FN:1930,1941,_ZNSt8_Rb_treeISt4pairIiN7doctest6StringEES0_IKS3_PFPNS1_9IReporterERKNS1_14ContextOptionsEEESt10_Select1stISC_ESt4lessIS3_ESaISC_EE8_M_eraseEPSt13_Rb_tree_nodeISC_E
FN:1963,1973,_ZNKSt8_Rb_treeIN7doctest6StringES1_St9_IdentityIS1_ESt4lessIS1_ESaIS1_EE14_M_lower_boundEPKSt13_Rb_tree_nodeIS1_EPKSt18_Rb_tree_node_baseRKS1_
FN:2108,2132,_ZNSt8_Rb_treeIN7doctest6StringES1_St9_IdentityIS1_ESt4lessIS1_ESaIS1_EE24_M_get_insert_unique_posERKS1_
FN:2108,2132,_ZNSt8_Rb_treeIN7doctest6detail8TestCaseES2_St9_IdentityIS2_ESt4lessIS2_ESaIS2_EE24_M_get_insert_unique_posERKS2_
FN:2108,2132,_ZNSt8_Rb_treeISt4pairIiN7doctest6StringEES0_IKS3_PFPNS1_9IReporterERKNS1_14ContextOptionsEEESt10_Select1stISC_ESt4lessIS3_ESaISC_EE24_M_get_insert_unique_posERS4_
FN:2162,2182,_ZNSt8_Rb_treeIN7doctest6StringES1_St9_IdentityIS1_ESt4lessIS1_ESaIS1_EE16_M_insert_uniqueIS1_EESt4pairISt17_Rb_tree_iteratorIS1_EbEOT_
FN:2162,2182,_ZNSt8_Rb_treeIN7doctest6detail8TestCaseES2_St9_IdentityIS2_ESt4lessIS2_ESaIS2_EE16_M_insert_uniqueIRKS2_EESt4pairISt17_Rb_tree_iteratorIS2_EbEOT_
FN:2162,2182,_ZNSt8_Rb_treeISt4pairIiN7doctest6StringEES0_IKS3_PFPNS1_9IReporterERKNS1_14ContextOptionsEEESt10_Select1stISC_ESt4lessIS3_ESaISC_EE16_M_insert_uniqueISC_EES0_ISt17_Rb_tree_iteratorISC_EbEOT_
FN:2542,2549,_ZNKSt8_Rb_treeIN7doctest6StringES1_St9_IdentityIS1_ESt4lessIS1_ESaIS1_EE4findERKS1_
FN:592,607,_ZNSt8_Rb_treeIN7doctest6detail8TestCaseES2_St9_IdentityIS2_ESt4lessIS2_ESaIS2_EE17_M_construct_nodeIJRKS2_EEEvPSt13_Rb_tree_nodeIS2_EDpOT_
FN:592,607,_ZNSt8_Rb_treeISt4pairIiN7doctest6StringEES0_IKS3_PFPNS1_9IReporterERKNS1_14ContextOptionsEEESt10_Select1stISC_ESt4lessIS3_ESaISC_EE17_M_construct_nodeIJSC_EEEvPSt13_Rb_tree_nodeISC_EDpOT_
FN:611,616,_ZNSt8_Rb_treeIN7doctest6StringES1_St9_IdentityIS1_ESt4lessIS1_ESaIS1_EE14_M_create_nodeIJS1_EEEPSt13_Rb_tree_nodeIS1_EDpOT_
FN:611,616,_ZNSt8_Rb_treeIN7doctest6detail8TestCaseES2_St9_IdentityIS2_ESt4lessIS2_ESaIS2_EE14_M_create_nodeIJRKS2_EEEPSt13_Rb_tree_nodeIS2_EDpOT_
FN:611,616,_ZNSt8_Rb_treeISt4pairIiN7doctest6StringEES0_IKS3_PFPNS1_9IReporterERKNS1_14ContextOptionsEEESt10_Select1stISC_ESt4lessIS3_ESaISC_EE14_M_create_nodeIJSC_EEEPSt13_Rb_tree_nodeISC_EDpOT_
FN:631,635,_ZNSt8_Rb_treeIN7doctest6StringES1_St9_IdentityIS1_ESt4lessIS1_ESaIS1_EE12_M_drop_nodeEPSt13_Rb_tree_nodeIS1_E
FNDA:0,_ZNSt8_Rb_treeIN7doctest6StringES1_St9_IdentityIS1_ESt4lessIS1_ESaIS1_EE10_M_insert_IS1_NS7_11_Alloc_nodeEEESt17_Rb_tree_iteratorIS1_EPSt18_Rb_tree_node_baseSD_OT_RT0_
FNDA:10,_ZNSt8_Rb_treeIN7doctest6detail8TestCaseES2_St9_IdentityIS2_ESt4lessIS2_ESaIS2_EE10_M_insert_IRKS2_NS8_11_Alloc_nodeEEESt17_Rb_tree_iteratorIS2_EPSt18_Rb_tree_node_baseSG_OT_RT0_
FNDA:3,_ZNSt8_Rb_treeISt4pairIiN7doctest6StringEES0_IKS3_PFPNS1_9IReporterERKNS1_14ContextOptionsEEESt10_Select1stISC_ESt4lessIS3_ESaISC_EE10_M_insert_ISC_NSI_11_Alloc_nodeEEESt17_Rb_tree_iteratorISC_EPSt18_Rb_tree_node_baseSO_OT_RT0_
FNDA:1,_ZNSt8_Rb_treeIN7doctest6StringES1_St9_IdentityIS1_ESt4lessIS1_ESaIS1_EE8_M_eraseEPSt13_Rb_tree_nodeIS1_E
FNDA:11,_ZNSt8_Rb_treeIN7doctest6detail8TestCaseES2_St9_IdentityIS2_ESt4lessIS2_ESaIS2_EE8_M_eraseEPSt13_Rb_tree_nodeIS2_E
FNDA:5,_ZNSt8_Rb_treeISt4pairIiN7doctest6StringEES0_IKS3_PFPNS1_9IReporterERKNS1_14ContextOptionsEEESt10_Select1stISC_ESt4lessIS3_ESaISC_EE8_M_eraseEPSt13_Rb_tree_nodeISC_E
FNDA:0,_ZNKSt8_Rb_treeIN7doctest6StringES1_St9_IdentityIS1_ESt4lessIS1_ESaIS1_EE14_M_lower_boundEPKSt13_Rb_tree_nodeIS1_EPKSt18_Rb_tree_node_baseRKS1_
FNDA:0,_ZNSt8_Rb_treeIN7doctest6StringES1_St9_IdentityIS1_ESt4lessIS1_ESaIS1_EE24_M_get_insert_unique_posERKS1_
FNDA:10,_ZNSt8_Rb_treeIN7doctest6detail8TestCaseES2_St9_IdentityIS2_ESt4lessIS2_ESaIS2_EE24_M_get_insert_unique_posERKS2_
FNDA:3,_ZNSt8_Rb_treeISt4pairIiN7doctest6StringEES0_IKS3_PFPNS1_9IReporterERKNS1_14ContextOptionsEEESt10_Select1stISC_ESt4lessIS3_ESaISC_EE24_M_get_insert_unique_posERS4_
FNDA:0,_ZNSt8_Rb_treeIN7doctest6StringES1_St9_IdentityIS1_ESt4lessIS1_ESaIS1_EE16_M_insert_uniqueIS1_EESt4pairISt17_Rb_tree_iteratorIS1_EbEOT_
FNDA:10,_ZNSt8_Rb_treeIN7doctest6detail8TestCaseES2_St9_IdentityIS2_ESt4lessIS2_ESaIS2_EE16_M_insert_uniqueIRKS2_EESt4pairISt17_Rb_tree_iteratorIS2_EbEOT_
FNDA:3,_ZNSt8_Rb_treeISt4pairIiN7doctest6StringEES0_IKS3_PFPNS1_9IReporterERKNS1_14ContextOptionsEEESt10_Select1stISC_ESt4lessIS3_ESaISC_EE16_M_insert_uniqueISC_EES0_ISt17_Rb_tree_iteratorISC_EbEOT_
FNDA:0,_ZNKSt8_Rb_treeIN7doctest6StringES1_St9_IdentityIS1_ESt4lessIS1_ESaIS1_EE4findERKS1_
FNDA:10,_ZNSt8_Rb_treeIN7doctest6detail8TestCaseES2_St9_IdentityIS2_ESt4lessIS2_ESaIS2_EE17_M_construct_nodeIJRKS2_EEEvPSt13_Rb_tree_nodeIS2_EDpOT_
FNDA:3,_ZNSt8_Rb_treeISt4pairIiN7doctest6StringEES0_IKS3_PFPNS1_9IReporterERKNS1_14ContextOptionsEEESt10_Select1stISC_ESt4lessIS3_ESaISC_EE17_M_construct_nodeIJSC_EEEvPSt13_Rb_tree_nodeISC_EDpOT_
FNDA:0,_ZNSt8_Rb_treeIN7doctest6StringES1_St9_IdentityIS1_ESt4lessIS1_ESaIS1_EE14_M_create_nodeIJS1_EEEPSt13_Rb_tree_nodeIS1_EDpOT_
FNDA:10,_ZNSt8_Rb_treeIN7doctest6detail8TestCaseES2_St9_IdentityIS2_ESt4lessIS2_ESaIS2_EE14_M_create_nodeIJRKS2_EEEPSt13_Rb_tree_nodeIS2_EDpOT_
FNDA:3,_ZNSt8_Rb_treeISt4pairIiN7doctest6StringEES0_IKS3_PFPNS1_9IReporterERKNS1_14ContextOptionsEEESt10_Select1stISC_ESt4lessIS3_ESaISC_EE14_M_create_nodeIJSC_EEEPSt13_Rb_tree_nodeISC_EDpOT_
FNDA:0,_ZNSt8_Rb_treeIN7doctest6StringES1_St9_IdentityIS1_ESt4lessIS1_ESaIS1_EE12_M_drop_nodeEPSt13_Rb_tree_nodeIS1_E
FNF:20
FNH:13
DA:146,4
DA:173,4
DA:174,4
DA:175,4
DA:176,4
DA:206,4
DA:208,4
DA:209,4
DA:210,4
DA:211,4
DA:234,26
DA:235,29
DA:238,55
DA:239,60
DA:273,32
DA:274,13
DA:278,3
DA:285,3
DA:287,3
DA:288,3
DA:300,0
DA:302,0
DA:303,0
DA:347,1
DA:350,10
DA:351,0
DA:358,10
DA:359,10
DA:366,10
DA:368,10
DA:369,10
DA:396,0
DA:397,0
DA:525,13
DA:526,13
DA:530,13
DA:531,13
DA:549,26
DA:550,52
DA:562,13
DA:563,26
DA:566,13
DA:567,13
DA:592,13
DA:596,13
DA:597,13
DA:601,0
DA:603,0
DA:604,0
DA:605,0
DA:607,13
DA:611,13
DA:613,13
DA:614,13
DA:615,13
DA:620,13
DA:625,13
DA:626,13
DA:631,0
DA:633,13
DA:634,13
DA:635,0
DA:662,4
DA:669,4
DA:673,4
DA:736,17
DA:737,17
DA:740,17
DA:741,17
DA:744,0
DA:747,0
DA:751,26
DA:752,26
DA:755,0
DA:756,0
DA:759,50
DA:777,32
DA:781,16
DA:782,16
DA:785,0
DA:786,0
DA:789,40
DA:790,40
DA:793,0
DA:794,0
DA:797,20
DA:798,20
DA:930,4
DA:985,4
DA:986,4
DA:997,6
DA:998,2
DA:1001,1
DA:1002,1
DA:1005,2
DA:1006,2
DA:1009,1
DA:1010,1
DA:1033,0
DA:1034,0
DA:1818,13
DA:1827,13
DA:1828,28
DA:1831,13
DA:1833,13
DA:1834,13
DA:1835,13
DA:1836,13
DA:1930,17
DA:1934,30
DA:1936,13
DA:1937,13
DA:1938,13
DA:1939,13
DA:1941,17
DA:1963,0
DA:1967,0
DA:1968,0
DA:1969,0
DA:1971,0
DA:1972,0
DA:2108,13
DA:2112,13
DA:2113,13
DA:2114,13
DA:2115,43
DA:2117,30
DA:2118,30
DA:2119,30
DA:2121,13
DA:2122,13
DA:2124,4
DA:2125,4
DA:2127,0
DA:2129,9
DA:2130,9
DA:2131,0
DA:2162,13
DA:2171,13
DA:2173,13
DA:2175,13
DA:2176,13
DA:2178,13
DA:2181,0
DA:2542,0
DA:2545,0
DA:2546,0
DA:2547,0
DA:2548,0
LF:149
LH:113
end_of_record
TN:
SF:/usr/include/c++/13.1.1/bits/stl_uninitialized.h
FN:1064,1074,_ZSt19__relocate_object_aIN7doctest16SubcaseSignatureES1_SaIS1_EEvPT_PT0_RT1_
FN:113,128,_ZSt16__do_uninit_copyIN9__gnu_cxx17__normal_iteratorIPKN7doctest6StringESt6vectorIS3_SaIS3_EEEEPS3_ET0_T_SC_SB_
FN:113,128,_ZSt16__do_uninit_copyIN9__gnu_cxx17__normal_iteratorIPN7doctest16SubcaseSignatureESt6vectorIS3_SaIS3_EEEES4_ET0_T_SA_S9_
FN:113,128,_ZSt16__do_uninit_copyISt13move_iteratorIPN7doctest16SubcaseSignatureEES3_ET0_T_S6_S5_
FNDA:0,_ZSt19__relocate_object_aIN7doctest16SubcaseSignatureES1_SaIS1_EEvPT_PT0_RT1_
FNDA:0,_ZSt16__do_uninit_copyIN9__gnu_cxx17__normal_iteratorIPKN7doctest6StringESt6vectorIS3_SaIS3_EEEEPS3_ET0_T_SC_SB_
FNDA:0,_ZSt16__do_uninit_copyIN9__gnu_cxx17__normal_iteratorIPN7doctest16SubcaseSignatureESt6vectorIS3_SaIS3_EEEES4_ET0_T_SA_S9_
FNDA:0,_ZSt16__do_uninit_copyISt13move_iteratorIPN7doctest16SubcaseSignatureEES3_ET0_T_S6_S5_
FNF:4
FNH:0
DA:113,0
DA:116,0
DA:119,0
DA:120,0
DA:121,0
DA:123,0
DA:125,0
DA:126,0
DA:135,0
DA:137,0
DA:163,0
DA:174,0
DA:181,0
DA:185,0
DA:366,0
DA:373,0
DA:381,0
DA:384,0
DA:393,0
DA:399,0
DA:637,1
DA:639,1
DA:642,10
DA:643,9
DA:696,1
DA:701,1
DA:706,1
DA:771,1
DA:773,1
DA:1064,0
DA:1072,0
DA:1073,0
DA:1074,0
DA:1086,2
DA:1098,2
DA:1099,2
DA:1100,0
DA:1109,42
DA:1113,42
DA:1114,42
DA:1126,14
DA:1128,21
DA:1136,22
DA:1142,38
LF:44
LH:19
end_of_record
TN:
SF:/usr/include/c++/13.1.1/bits/stl_vector.h
FN:1278,1290,_ZNSt6vectorIN7doctest16SubcaseSignatureESaIS1_EE9push_backERKS1_
FN:1278,1290,_ZNSt6vectorIN7doctest6StringESaIS1_EE9push_backERKS1_
FN:1278,1290,_ZNSt6vectorINSt7__cxx1112basic_stringIcSt11char_traitsIcESaIcEEESaIS5_EE9push_backERKS5_
FN:1278,1290,_ZNSt6vectorIPKN7doctest6detail20IExceptionTranslatorESaIS4_EE9push_backERKS4_
FN:1278,1290,_ZNSt6vectorIdSaIdEE9push_backERKd
FN:1893,1900,_ZNKSt6vectorIN7doctest12_GLOBAL__N_113JUnitReporter17JUnitTestCaseData13JUnitTestCaseESaIS4_EE12_M_check_lenEmPKc
FN:1893,1900,_ZNKSt6vectorIN7doctest12_GLOBAL__N_113JUnitReporter17JUnitTestCaseData16JUnitTestMessageESaIS4_EE12_M_check_lenEmPKc
FN:1893,1900,_ZNKSt6vectorIN7doctest16SubcaseSignatureESaIS1_EE12_M_check_lenEmPKc
FN:1893,1900,_ZNKSt6vectorIN7doctest6StringESaIS1_EE12_M_check_lenEmPKc
FN:1893,1900,_ZNKSt6vectorINSt7__cxx1112basic_stringIcSt11char_traitsIcESaIcEEESaIS5_EE12_M_check_lenEmPKc
FN:1893,1900,_ZNKSt6vectorIPKN7doctest12TestCaseDataESaIS3_EE12_M_check_lenEmPKc
FN:1893,1900,_ZNKSt6vectorIPKN7doctest6detail20IExceptionTranslatorESaIS4_EE12_M_check_lenEmPKc
FN:1893,1900,_ZNKSt6vectorIPKN7doctest6detail8TestCaseESaIS4_EE12_M_check_lenEmPKc
FN:1893,1900,_ZNKSt6vectorIPN7doctest13IContextScopeESaIS2_EE12_M_check_lenEmPKc
FN:1893,1900,_ZNKSt6vectorIPN7doctest9IReporterESaIS2_EE12_M_check_lenEmPKc
FN:1893,1900,_ZNKSt6vectorISt4fposI11__mbstate_tESaIS2_EE12_M_check_lenEmPKc
FN:1893,1900,_ZNKSt6vectorIdSaIdEE12_M_check_lenEmPKc
FN:393,398,_ZNSt12_Vector_baseIN7doctest6StringESaIS1_EE17_M_create_storageEm
FN:393,398,_ZNSt12_Vector_baseISt6vectorIN7doctest6StringESaIS2_EESaIS4_EE17_M_create_storageEm
FN:553,555,_ZNSt6vectorIS_IN7doctest6StringESaIS1_EESaIS3_EEC2EmRKS4_
FN:598,606,_ZNSt6vectorIN7doctest6StringESaIS1_EEC2ERKS3_
FN:730,735,_ZNSt6vectorIN7doctest12_GLOBAL__N_113JUnitReporter17JUnitTestCaseData13JUnitTestCaseESaIS4_EED2Ev
FN:730,735,_ZNSt6vectorIN7doctest12_GLOBAL__N_113JUnitReporter17JUnitTestCaseData16JUnitTestMessageESaIS4_EED2Ev
FN:730,735,_ZNSt6vectorIN7doctest16SubcaseSignatureESaIS1_EED2Ev
FN:730,735,_ZNSt6vectorIN7doctest6StringESaIS1_EED2Ev
FN:730,735,_ZNSt6vectorINSt7__cxx1112basic_stringIcSt11char_traitsIcESaIcEEESaIS5_EED2Ev
FN:730,735,_ZNSt6vectorIPKN7doctest12TestCaseDataESaIS3_EED2Ev
FN:730,735,_ZNSt6vectorIPKN7doctest6detail20IExceptionTranslatorESaIS4_EED2Ev
FN:730,735,_ZNSt6vectorIPKN7doctest6detail8TestCaseESaIS4_EED2Ev
FN:730,735,_ZNSt6vectorIPN7doctest13IContextScopeESaIS2_EED2Ev
FN:730,735,_ZNSt6vectorIPN7doctest9IReporterESaIS2_EED2Ev
FN:730,735,_ZNSt6vectorIS_IN7doctest6StringESaIS1_EESaIS3_EED2Ev
FN:730,735,_ZNSt6vectorISt4fposI11__mbstate_tESaIS2_EED2Ev
FN:730,735,_ZNSt6vectorIdSaIdEED2Ev
FNDA:0,_ZNSt6vectorIN7doctest16SubcaseSignatureESaIS1_EE9push_backERKS1_
FNDA:0,_ZNSt6vectorIN7doctest6StringESaIS1_EE9push_backERKS1_
FNDA:0,_ZNSt6vectorINSt7__cxx1112basic_stringIcSt11char_traitsIcESaIcEEESaIS5_EE9push_backERKS5_
FNDA:0,_ZNSt6vectorIPKN7doctest6detail20IExceptionTranslatorESaIS4_EE9push_backERKS4_
FNDA:15,_ZNSt6vectorIdSaIdEE9push_backERKd
FNDA:0,_ZNKSt6vectorIN7doctest12_GLOBAL__N_113JUnitReporter17JUnitTestCaseData13JUnitTestCaseESaIS4_EE12_M_check_lenEmPKc
FNDA:0,_ZNKSt6vectorIN7doctest12_GLOBAL__N_113JUnitReporter17JUnitTestCaseData16JUnitTestMessageESaIS4_EE12_M_check_lenEmPKc
FNDA:0,_ZNKSt6vectorIN7doctest16SubcaseSignatureESaIS1_EE12_M_check_lenEmPKc
FNDA:1,_ZNKSt6vectorIN7doctest6StringESaIS1_EE12_M_check_lenEmPKc
FNDA:0,_ZNKSt6vectorINSt7__cxx1112basic_stringIcSt11char_traitsIcESaIcEEESaIS5_EE12_M_check_lenEmPKc
FNDA:0,_ZNKSt6vectorIPKN7doctest12TestCaseDataESaIS3_EE12_M_check_lenEmPKc
FNDA:0,_ZNKSt6vectorIPKN7doctest6detail20IExceptionTranslatorESaIS4_EE12_M_check_lenEmPKc
FNDA:5,_ZNKSt6vectorIPKN7doctest6detail8TestCaseESaIS4_EE12_M_check_lenEmPKc
FNDA:0,_ZNKSt6vectorIPN7doctest13IContextScopeESaIS2_EE12_M_check_lenEmPKc
FNDA:1,_ZNKSt6vectorIPN7doctest9IReporterESaIS2_EE12_M_check_lenEmPKc
FNDA:0,_ZNKSt6vectorISt4fposI11__mbstate_tESaIS2_EE12_M_check_lenEmPKc
FNDA:15,_ZNKSt6vectorIdSaIdEE12_M_check_lenEmPKc
FNDA:0,_ZNSt12_Vector_baseIN7doctest6StringESaIS1_EE17_M_create_storageEm
FNDA:1,_ZNSt12_Vector_baseISt6vectorIN7doctest6StringESaIS2_EESaIS4_EE17_M_create_storageEm
FNDA:1,_ZNSt6vectorIS_IN7doctest6StringESaIS1_EESaIS3_EEC2EmRKS4_
FNDA:0,_ZNSt6vectorIN7doctest6StringESaIS1_EEC2ERKS3_
FNDA:0,_ZNSt6vectorIN7doctest12_GLOBAL__N_113JUnitReporter17JUnitTestCaseData13JUnitTestCaseESaIS4_EED2Ev
FNDA:0,_ZNSt6vectorIN7doctest12_GLOBAL__N_113JUnitReporter17JUnitTestCaseData16JUnitTestMessageESaIS4_EED2Ev
FNDA:3,_ZNSt6vectorIN7doctest16SubcaseSignatureESaIS1_EED2Ev
FNDA:10,_ZNSt6vectorIN7doctest6StringESaIS1_EED2Ev
FNDA:0,_ZNSt6vectorINSt7__cxx1112basic_stringIcSt11char_traitsIcESaIcEEESaIS5_EED2Ev
FNDA:1,_ZNSt6vectorIPKN7doctest12TestCaseDataESaIS3_EED2Ev
FNDA:1,_ZNSt6vectorIPKN7doctest6detail20IExceptionTranslatorESaIS4_EED2Ev
FNDA:1,_ZNSt6vectorIPKN7doctest6detail8TestCaseESaIS4_EED2Ev
FNDA:0,_ZNSt6vectorIPN7doctest13IContextScopeESaIS2_EED2Ev
FNDA:1,_ZNSt6vectorIPN7doctest9IReporterESaIS2_EED2Ev
FNDA:1,_ZNSt6vectorIS_IN7doctest6StringESaIS1_EESaIS3_EED2Ev
FNDA:0,_ZNSt6vectorISt4fposI11__mbstate_tESaIS2_EED2Ev
FNDA:2,_ZNSt6vectorIdSaIdEED2Ev
FNF:34
FNH:15
DA:99,18
DA:100,18
DA:133,20
DA:137,17
DA:139,16
DA:143,1
DA:144,1
DA:298,20
DA:299,37
DA:303,0
DA:304,44
DA:312,17
DA:330,1
DA:331,1
DA:332,1
DA:364,20
DA:366,40
DA:367,20
DA:368,20
DA:375,23
DA:378,23
DA:383,17
DA:386,22
DA:387,18
DA:393,1
DA:395,1
DA:396,1
DA:397,1
DA:398,1
DA:501,37
DA:506,23
DA:528,16
DA:553,1
DA:554,1
DA:555,1
DA:598,0
DA:600,0
DA:602,0
DA:603,0
DA:605,0
DA:606,0
DA:730,20
DA:732,40
DA:733,20
DA:735,20
DA:870,116
DA:871,116
DA:880,85
DA:881,0
DA:890,128
DA:891,116
DA:900,85
DA:901,0
DA:951,0
DA:952,0
DA:961,0
DA:962,0
DA:989,26
DA:990,19
DA:996,44
DA:1085,74
DA:1086,75
DA:1123,83
DA:1126,25
DA:1152,9
DA:1154,9
DA:1155,0
DA:1175,3
DA:1177,9
DA:1178,3
DA:1230,0
DA:1233,0
DA:1257,0
DA:1258,0
DA:1278,15
DA:1280,15
DA:1283,0
DA:1285,0
DA:1289,15
DA:1290,15
DA:1295,12
DA:1296,12
DA:1319,0
DA:1322,0
DA:1323,0
DA:1390,0
DA:1391,0
DA:1479,0
DA:1482,0
DA:1483,0
DA:1484,0
DA:1485,0
DA:1602,31
DA:1603,11
DA:1712,1
DA:1714,1
DA:1715,2
DA:1716,1
DA:1893,22
DA:1895,22
DA:1896,0
DA:1898,22
DA:1899,22
DA:1904,1
DA:1906,1
DA:1907,0
DA:1930,31
DA:1932,21
DA:1934,2
DA:1935,1
DA:1936,1
LF:111
LH:79
end_of_record
TN:
SF:/usr/include/c++/13.1.1/bits/unordered_set.h
FNF:0
FNH:0
DA:341,0
DA:342,0
DA:432,0
DA:433,0
DA:580,10
DA:581,10
DA:657,0
DA:658,0
LF:8
LH:2
end_of_record
TN:
SF:/usr/include/c++/13.1.1/bits/vector.tcc
FN:111,127,_ZNSt6vectorIN7doctest12_GLOBAL__N_113JUnitReporter17JUnitTestCaseData13JUnitTestCaseESaIS4_EE12emplace_backIJRKNSt7__cxx1112basic_stringIcSt11char_traitsIcESaIcEEESF_EEERS4_DpOT_
FN:111,127,_ZNSt6vectorIN7doctest12_GLOBAL__N_113JUnitReporter17JUnitTestCaseData16JUnitTestMessageESaIS4_EE12emplace_backIJRKNSt7__cxx1112basic_stringIcSt11char_traitsIcESaIcEEESF_EEERS4_DpOT_
FN:111,127,_ZNSt6vectorIN7doctest12_GLOBAL__N_113JUnitReporter17JUnitTestCaseData16JUnitTestMessageESaIS4_EE12emplace_backIJRKNSt7__cxx1112basic_stringIcSt11char_traitsIcESaIcEEESF_SF_EEERS4_DpOT_
FN:111,127,_ZNSt6vectorIN7doctest6StringESaIS1_EE12emplace_backIJS1_EEERS1_DpOT_
FN:111,127,_ZNSt6vectorIPKN7doctest12TestCaseDataESaIS3_EE12emplace_backIJS3_EEERS3_DpOT_
FN:111,127,_ZNSt6vectorIPKN7doctest6detail8TestCaseESaIS4_EE12emplace_backIJS4_EEERS4_DpOT_
FN:111,127,_ZNSt6vectorIPN7doctest13IContextScopeESaIS2_EE12emplace_backIJS2_EEERS2_DpOT_
FN:111,127,_ZNSt6vectorIPN7doctest9IReporterESaIS2_EE12emplace_backIJS2_EEERS2_DpOT_
FN:111,127,_ZNSt6vectorISt4fposI11__mbstate_tESaIS2_EE12emplace_backIJS2_EEERS2_DpOT_
FN:356,375,_ZNSt6vectorIPN7doctest9IReporterESaIS2_EE14_M_insert_rvalEN9__gnu_cxx17__normal_iteratorIPKS2_S4_EEOS2_
FN:445,524,_ZNSt6vectorIN7doctest12_GLOBAL__N_113JUnitReporter17JUnitTestCaseData13JUnitTestCaseESaIS4_EE17_M_realloc_insertIJRKNSt7__cxx1112basic_stringIcSt11char_traitsIcESaIcEEESF_EEEvN9__gnu_cxx17__normal_iteratorIPS4_S6_EEDpOT_
FN:445,524,_ZNSt6vectorIN7doctest12_GLOBAL__N_113JUnitReporter17JUnitTestCaseData16JUnitTestMessageESaIS4_EE17_M_realloc_insertIJRKNSt7__cxx1112basic_stringIcSt11char_traitsIcESaIcEEESF_EEEvN9__gnu_cxx17__normal_iteratorIPS4_S6_EEDpOT_
FN:445,524,_ZNSt6vectorIN7doctest12_GLOBAL__N_113JUnitReporter17JUnitTestCaseData16JUnitTestMessageESaIS4_EE17_M_realloc_insertIJRKNSt7__cxx1112basic_stringIcSt11char_traitsIcESaIcEEESF_SF_EEEvN9__gnu_cxx17__normal_iteratorIPS4_S6_EEDpOT_
FN:445,524,_ZNSt6vectorIN7doctest16SubcaseSignatureESaIS1_EE17_M_realloc_insertIJRKS1_EEEvN9__gnu_cxx17__normal_iteratorIPS1_S3_EEDpOT_
FN:445,524,_ZNSt6vectorIN7doctest6StringESaIS1_EE17_M_realloc_insertIJRKS1_EEEvN9__gnu_cxx17__normal_iteratorIPS1_S3_EEDpOT_
FN:445,524,_ZNSt6vectorIN7doctest6StringESaIS1_EE17_M_realloc_insertIJS1_EEEvN9__gnu_cxx17__normal_iteratorIPS1_S3_EEDpOT_
FN:445,524,_ZNSt6vectorINSt7__cxx1112basic_stringIcSt11char_traitsIcESaIcEEESaIS5_EE17_M_realloc_insertIJRKS5_EEEvN9__gnu_cxx17__normal_iteratorIPS5_S7_EEDpOT_
FN:445,524,_ZNSt6vectorIPKN7doctest12TestCaseDataESaIS3_EE17_M_realloc_insertIJS3_EEEvN9__gnu_cxx17__normal_iteratorIPS3_S5_EEDpOT_
FN:445,524,_ZNSt6vectorIPKN7doctest6detail20IExceptionTranslatorESaIS4_EE17_M_realloc_insertIJRKS4_EEEvN9__gnu_cxx17__normal_iteratorIPS4_S6_EEDpOT_
FN:445,524,_ZNSt6vectorIPKN7doctest6detail8TestCaseESaIS4_EE17_M_realloc_insertIJS4_EEEvN9__gnu_cxx17__normal_iteratorIPS4_S6_EEDpOT_
FN:445,524,_ZNSt6vectorIPN7doctest13IContextScopeESaIS2_EE17_M_realloc_insertIJS2_EEEvN9__gnu_cxx17__normal_iteratorIPS2_S4_EEDpOT_
FN:445,524,_ZNSt6vectorIPN7doctest9IReporterESaIS2_EE17_M_realloc_insertIJS2_EEEvN9__gnu_cxx17__normal_iteratorIPS2_S4_EEDpOT_
FN:445,524,_ZNSt6vectorISt4fposI11__mbstate_tESaIS2_EE17_M_realloc_insertIJS2_EEEvN9__gnu_cxx17__normal_iteratorIPS2_S4_EEDpOT_
FN:445,524,_ZNSt6vectorIdSaIdEE17_M_realloc_insertIJRKdEEEvN9__gnu_cxx17__normal_iteratorIPdS1_EEDpOT_
FN:751,839,_ZNSt6vectorIN7doctest16SubcaseSignatureESaIS1_EE15_M_range_insertIN9__gnu_cxx17__normal_iteratorIPS1_S3_EEEEvS8_T_S9_St20forward_iterator_tag
FNDA:0,_ZNSt6vectorIN7doctest12_GLOBAL__N_113JUnitReporter17JUnitTestCaseData13JUnitTestCaseESaIS4_EE12emplace_backIJRKNSt7__cxx1112basic_stringIcSt11char_traitsIcESaIcEEESF_EEERS4_DpOT_
FNDA:0,_ZNSt6vectorIN7doctest12_GLOBAL__N_113JUnitReporter17JUnitTestCaseData16JUnitTestMessageESaIS4_EE12emplace_backIJRKNSt7__cxx1112basic_stringIcSt11char_traitsIcESaIcEEESF_EEERS4_DpOT_
FNDA:0,_ZNSt6vectorIN7doctest12_GLOBAL__N_113JUnitReporter17JUnitTestCaseData16JUnitTestMessageESaIS4_EE12emplace_backIJRKNSt7__cxx1112basic_stringIcSt11char_traitsIcESaIcEEESF_SF_EEERS4_DpOT_
FNDA:1,_ZNSt6vectorIN7doctest6StringESaIS1_EE12emplace_backIJS1_EEERS1_DpOT_
FNDA:0,_ZNSt6vectorIPKN7doctest12TestCaseDataESaIS3_EE12emplace_backIJS3_EEERS3_DpOT_
FNDA:10,_ZNSt6vectorIPKN7doctest6detail8TestCaseESaIS4_EE12emplace_backIJS4_EEERS4_DpOT_
FNDA:0,_ZNSt6vectorIPN7doctest13IContextScopeESaIS2_EE12emplace_backIJS2_EEERS2_DpOT_
FNDA:1,_ZNSt6vectorIPN7doctest9IReporterESaIS2_EE12emplace_backIJS2_EEERS2_DpOT_
FNDA:0,_ZNSt6vectorISt4fposI11__mbstate_tESaIS2_EE12emplace_backIJS2_EEERS2_DpOT_
FNDA:0,_ZNSt6vectorIPN7doctest9IReporterESaIS2_EE14_M_insert_rvalEN9__gnu_cxx17__normal_iteratorIPKS2_S4_EEOS2_
FNDA:0,_ZNSt6vectorIN7doctest12_GLOBAL__N_113JUnitReporter17JUnitTestCaseData13JUnitTestCaseESaIS4_EE17_M_realloc_insertIJRKNSt7__cxx1112basic_stringIcSt11char_traitsIcESaIcEEESF_EEEvN9__gnu_cxx17__normal_iteratorIPS4_S6_EEDpOT_
FNDA:0,_ZNSt6vectorIN7doctest12_GLOBAL__N_113JUnitReporter17JUnitTestCaseData16JUnitTestMessageESaIS4_EE17_M_realloc_insertIJRKNSt7__cxx1112basic_stringIcSt11char_traitsIcESaIcEEESF_EEEvN9__gnu_cxx17__normal_iteratorIPS4_S6_EEDpOT_
FNDA:0,_ZNSt6vectorIN7doctest12_GLOBAL__N_113JUnitReporter17JUnitTestCaseData16JUnitTestMessageESaIS4_EE17_M_realloc_insertIJRKNSt7__cxx1112basic_stringIcSt11char_traitsIcESaIcEEESF_SF_EEEvN9__gnu_cxx17__normal_iteratorIPS4_S6_EEDpOT_
FNDA:0,_ZNSt6vectorIN7doctest16SubcaseSignatureESaIS1_EE17_M_realloc_insertIJRKS1_EEEvN9__gnu_cxx17__normal_iteratorIPS1_S3_EEDpOT_
FNDA:0,_ZNSt6vectorIN7doctest6StringESaIS1_EE17_M_realloc_insertIJRKS1_EEEvN9__gnu_cxx17__normal_iteratorIPS1_S3_EEDpOT_
FNDA:1,_ZNSt6vectorIN7doctest6StringESaIS1_EE17_M_realloc_insertIJS1_EEEvN9__gnu_cxx17__normal_iteratorIPS1_S3_EEDpOT_
FNDA:0,_ZNSt6vectorINSt7__cxx1112basic_stringIcSt11char_traitsIcESaIcEEESaIS5_EE17_M_realloc_insertIJRKS5_EEEvN9__gnu_cxx17__normal_iteratorIPS5_S7_EEDpOT_
FNDA:0,_ZNSt6vectorIPKN7doctest12TestCaseDataESaIS3_EE17_M_realloc_insertIJS3_EEEvN9__gnu_cxx17__normal_iteratorIPS3_S5_EEDpOT_
FNDA:0,_ZNSt6vectorIPKN7doctest6detail20IExceptionTranslatorESaIS4_EE17_M_realloc_insertIJRKS4_EEEvN9__gnu_cxx17__normal_iteratorIPS4_S6_EEDpOT_
FNDA:5,_ZNSt6vectorIPKN7doctest6detail8TestCaseESaIS4_EE17_M_realloc_insertIJS4_EEEvN9__gnu_cxx17__normal_iteratorIPS4_S6_EEDpOT_
FNDA:0,_ZNSt6vectorIPN7doctest13IContextScopeESaIS2_EE17_M_realloc_insertIJS2_EEEvN9__gnu_cxx17__normal_iteratorIPS2_S4_EEDpOT_
FNDA:1,_ZNSt6vectorIPN7doctest9IReporterESaIS2_EE17_M_realloc_insertIJS2_EEEvN9__gnu_cxx17__normal_iteratorIPS2_S4_EEDpOT_
FNDA:0,_ZNSt6vectorISt4fposI11__mbstate_tESaIS2_EE17_M_realloc_insertIJS2_EEEvN9__gnu_cxx17__normal_iteratorIPS2_S4_EEDpOT_
FNDA:15,_ZNSt6vectorIdSaIdEE17_M_realloc_insertIJRKdEEEvN9__gnu_cxx17__normal_iteratorIPdS1_EEDpOT_
FNDA:0,_ZNSt6vectorIN7doctest16SubcaseSignatureESaIS1_EE15_M_range_insertIN9__gnu_cxx17__normal_iteratorIPS1_S3_EEEEvS8_T_S9_St20forward_iterator_tag
FNF:25
FNH:7
DA:111,12
DA:114,12
DA:117,5
DA:119,5
DA:123,7
DA:125,12
DA:356,0
DA:359,0
DA:360,0
DA:361,0
DA:364,0
DA:366,0
DA:370,0
DA:372,0
DA:374,0
DA:413,0
DA:423,0
DA:424,0
DA:425,0
DA:430,0
DA:436,0
DA:445,22
DA:455,22
DA:456,22
DA:457,22
DA:458,22
DA:459,22
DA:460,22
DA:468,22
DA:469,22
DA:475,22
DA:480,22
DA:481,22
DA:483,22
DA:485,22
DA:486,22
DA:504,0
DA:506,0
DA:507,0
DA:510,0
DA:511,0
DA:512,0
DA:519,44
DA:520,22
DA:521,22
DA:522,22
DA:523,22
DA:524,22
DA:751,0
DA:755,0
DA:757,0
DA:758,0
DA:759,0
DA:761,0
DA:762,0
DA:763,0
DA:766,0
DA:769,0
DA:770,0
DA:772,0
DA:774,0
DA:778,0
DA:779,0
DA:781,0
DA:783,0
DA:784,0
DA:786,0
DA:789,0
DA:790,0
DA:792,0
DA:800,0
DA:801,0
DA:804,0
DA:805,0
DA:806,0
DA:811,0
DA:812,0
DA:814,0
DA:816,0
DA:819,0
DA:820,0
DA:822,0
DA:824,0
DA:825,0
DA:826,0
DA:827,0
DA:829,0
DA:830,0
DA:832,0
DA:833,0
DA:834,0
DA:835,0
DA:836,0
DA:839,0
LF:94
LH:27
end_of_record
TN:
SF:/usr/include/c++/13.1.1/cmath
FNF:0
FNH:0
DA:417,3
DA:420,3
DA:1171,0
DA:1172,0
DA:1179,0
DA:1180,0
DA:1184,0
DA:1185,0
LF:8
LH:2
end_of_record
TN:
SF:/usr/include/c++/13.1.1/compare
FN:1214,1233,_ZNKSt8__detail10_Synth3wayclIN7doctest6StringES3_EEDaRKT_RKT0_
FNDA:5,_ZNKSt8__detail10_Synth3wayclIN7doctest6StringES3_EEDaRKT_RKT0_
FNF:1
FNH:1
DA:57,10
DA:170,0
DA:197,5
DA:198,5
DA:277,0
DA:278,0
DA:1214,5
DA:1223,5
DA:1226,5
DA:1227,5
DA:1228,0
DA:1229,0
DA:1231,0
LF:13
LH:7
end_of_record
TN:
SF:/usr/include/c++/13.1.1/ext/aligned_buffer.h
FNF:0
FNH:0
DA:64,26
DA:65,0
DA:68,55
DA:69,5
DA:72,26
DA:73,29
DA:76,55
DA:77,55
DA:104,0
DA:106,0
DA:112,0
DA:116,0
DA:117,0
LF:13
LH:7
end_of_record
TN:
SF:/usr/include/c++/13.1.1/ext/alloc_traits.h
FNF:0
FNH:0
DA:97,112
DA:98,112
LF:2
LH:2
end_of_record
TN:
SF:/usr/include/c++/13.1.1/fstream
FNF:0
FNH:0
DA:272,1
DA:273,1
DA:1166,1
DA:1167,1
LF:4
LH:4
end_of_record
TN:
SF:/usr/include/c++/13.1.1/iomanip
FNF:0
FNH:0
DA:180,0
DA:182,0
DA:210,0
DA:212,0
DA:240,6
DA:242,6
LF:6
LH:2
end_of_record
TN:
SF:/usr/include/c++/13.1.1/ostream
FNF:0
FNH:0
DA:86,1
DA:87,1
DA:110,1
DA:115,1
DA:129,1
DA:134,1
DA:168,0
DA:169,0
DA:172,0
DA:173,0
DA:183,0
DA:187,0
DA:194,3
DA:198,3
DA:203,0
DA:204,0
DA:207,0
DA:208,0
DA:222,0
DA:223,0
DA:226,0
DA:230,0
DA:234,0
DA:235,0
DA:292,0
DA:293,0
DA:586,0
DA:587,0
LF:28
LH:8
end_of_record
TN:
SF:/usr/include/c++/13.1.1/sstream
FNF:0
FNH:0
DA:930,0
DA:931,0
DA:973,0
DA:974,0
DA:1152,0
DA:1153,0
DA:1195,0
DA:1196,0
LF:8
LH:0
end_of_record
TN:
SF:/usr/include/c++/13.1.1/streambuf
FNF:0
FNH:0
DA:270,0
DA:272,0
DA:470,1
DA:471,1
DA:472,1
DA:473,1
DA:562,0
DA:564,0
DA:565,0
LF:9
LH:4
end_of_record
TN:
SF:/usr/include/c++/13.1.1/x86_64-pc-linux-gnu/bits/gthr-default.h
FNF:0
FNH:0
DA:746,0
DA:748,0
DA:749,0
DA:776,0
DA:778,0
DA:779,0
LF:6
LH:0
end_of_record
TN:
SF:/usr/include/stdlib.h
FNF:0
FNH:0
DA:362,0
DA:364,0
LF:2
LH:0
end_of_record
TN:
SF:/usr/include/string.h
FNF:0
FNH:0
DA:266,0
DA:268,0
DA:343,258
DA:345,258
LF:4
LH:2
end_of_record
